(dp1
S'01111'
p2
(dp3
(I0
I1
S'l'
S'l'
tp4
S'11111'
p5
ssS'11000'
p6
(dp7
(I0
I2
S'g'
S'g'
tp8
S'00000'
p9
ssS'10000'
p10
(dp11
(I0
I1
S'g'
S'g'
tp12
S'00000'
p13
ssS'11110'
p14
(dp15
(I4
I5
S'l'
S'l'
tp16
S'11111'
p17
ssS'11100'
p18
(dp19
(I0
I3
S'g'
S'g'
tp20
S'00000'
p21
ssS'11101'
p22
(dp23
(I3
I4
S'l'
S'l'
tp24
S'11111'
p25
ssS'11011'
p26
(dp27
(I2
I3
S'l'
S'l'
tp28
S'11111'
p29
ssS'01000'
p30
(dp31
(I1
I2
S'g'
S'g'
tp32
S'00000'
p33
ssS'00111'
p34
(dp35
(I0
I2
S'l'
S'l'
tp36
S'11111'
p37
ssS'00001'
p38
(dp39
(I4
I5
S'g'
S'g'
tp40
S'00000'
p41
ssS'00010'
p42
(dp43
(I3
I4
S'g'
S'g'
tp44
S'00000'
p45
ssS'00011'
p46
(dp47
(I0
I3
S'l'
S'l'
tp48
S'11111'
p49
ssS'00100'
p50
(dp51
(I2
I3
S'g'
S'g'
tp52
S'00000'
p53
ssS'10111'
p54
(dp55
(I1
I2
S'l'
S'l'
tp56
S'11111'
p57
ss.c__builtin__
set
p1
((ltRp2
.