(dp1
S'01110'
p2
(dp3
(I0
I1
S'l'
S'l'
tp4
S'11110'
p5
s(I4
I5
S'l'
S'l'
tp6
S'01111'
p7
ssS'11001'
p8
(dp9
(I4
I5
S'g'
S'g'
tp10
S'11000'
p11
s(I3
I4
S'l'
S'l'
tp12
S'11011'
p13
s(I2
I3
S'l'
S'l'
tp14
S'11101'
p15
s(I0
I2
S'g'
S'g'
tp16
S'00001'
p17
ssS'10001'
p18
(dp19
(I4
I5
S'g'
S'g'
tp20
S'10000'
p21
s(I0
I1
S'g'
S'g'
tp22
S'00001'
p23
ssS'01101'
p24
(dp25
(I0
I1
S'l'
S'l'
tp26
S'11101'
p27
s(I3
I4
S'l'
S'l'
tp28
S'01111'
p29
ssS'01100'
p30
(dp31
(I0
I1
S'l'
S'l'
tp32
S'11100'
p33
s(I2
I3
S'g'
S'g'
tp34
S'01000'
p35
s(I1
I2
S'g'
S'g'
tp36
S'00100'
p37
ssS'01011'
p38
(dp39
(I0
I1
S'l'
S'l'
tp40
S'11011'
p41
s(I2
I3
S'l'
S'l'
tp42
S'01111'
p43
s(I1
I2
S'g'
S'g'
tp44
S'00011'
p45
ssS'11010'
p46
(dp47
(I0
I2
S'g'
S'g'
tp48
S'00010'
p49
s(I3
I4
S'g'
S'g'
tp50
S'11000'
p51
s(I4
I5
S'l'
S'l'
tp52
S'11011'
p53
s(I2
I3
S'l'
S'l'
tp54
S'11110'
p55
ssS'01010'
p56
(dp57
(I3
I4
S'g'
S'g'
tp58
S'01000'
p59
s(I1
I2
S'g'
S'g'
tp60
S'00010'
p61
ssS'01001'
p62
(dp63
(I4
I5
S'g'
S'g'
tp64
S'01000'
p65
s(I1
I2
S'g'
S'g'
tp66
S'00001'
p67
ssS'00110'
p68
(dp69
(I2
I3
S'g'
S'g'
tp70
S'00010'
p71
s(I4
I5
S'l'
S'l'
tp72
S'00111'
p73
s(I3
I4
S'g'
S'g'
tp74
S'00100'
p75
s(I0
I2
S'l'
S'l'
tp76
S'11110'
p77
ssS'00101'
p78
(dp79
(I2
I3
S'g'
S'g'
tp80
S'00001'
p81
s(I4
I5
S'g'
S'g'
tp82
S'00100'
p83
s(I3
I4
S'l'
S'l'
tp84
S'00111'
p85
s(I0
I2
S'l'
S'l'
tp86
S'11101'
p87
ssS'10011'
p88
(dp89
(I1
I2
S'l'
S'l'
tp90
S'11011'
p91
s(I2
I3
S'l'
S'l'
tp92
S'10111'
p93
s(I0
I1
S'g'
S'g'
tp94
S'00011'
p95
ssS'10010'
p96
(dp97
(I3
I4
S'g'
S'g'
tp98
S'10000'
p99
s(I0
I1
S'g'
S'g'
tp100
S'00010'
p101
ssS'10101'
p102
(dp103
(I1
I2
S'l'
S'l'
tp104
S'11101'
p105
s(I3
I4
S'l'
S'l'
tp106
S'10111'
p107
ssS'10100'
p108
(dp109
(I1
I2
S'l'
S'l'
tp110
S'11100'
p111
s(I2
I3
S'g'
S'g'
tp112
S'10000'
p113
s(I0
I1
S'g'
S'g'
tp114
S'00100'
p115
ssS'10110'
p116
(dp117
(I1
I2
S'l'
S'l'
tp118
S'11110'
p119
s(I4
I5
S'l'
S'l'
tp120
S'10111'
p121
ss.c__builtin__
set
p1
((lp2
S'11001'
p3
aS'01100'
p4
aS'01011'
p5
aS'11010'
p6
aS'00101'
p7
aS'00110'
p8
aS'10011'
p9
aS'10100'
p10
atRp11
.