(dp1
S'fake_gene'
p2
(dp3
S'gorilla'
p4
S'AGACTGGAGCATCCGTCTATTTGGCGAAGTTTCGGCCGCGGATGCAGGAGGTCCTGTGATTTTAGCGCTGTTGCAGAGAATACGACGAATACGGGACGCGACCACATCTCAGGCCCGTTAAACAGTCGTCCGCCTGATCGGACAAAGATGGTTATGCTTTCGCTACGCGGCTCCTCCTGCGGCGGGCGCCTGTCGAGCCATGTGCCGGTTAGCACTGTCACGCATCGCTTGGTGCAGGGGTATAAGTTAGCACTGACCGGTGAGACTCCCTATCGTACACCATTCCACCGACGTCCTGCTCTCCAGGTGCATGGACACATTGGTTCGTTGATCACAGTGCAGGAAATACATTGTAACAATAAATCCGCCTCTGGTCGTTCACAGGTACCGTGCTCTTGGGAGCGGACAGGTGGGGGGCTCTTCCCCTCAGGAATAGTGCGCGGGATTTCTGGCGCCCCTTTTTCTGGGGAATCGCGCCGGCTTGGGATTTACGAGCCCAATGACTCTGCCCACACTATTCTACTACGGCAACTAGTTCAGCTTTTCTCACTGGGCATTTACGCGCCGCCTTCGGTGAGTTCCTACAGTTGTGTGGCCCGGTCTATCCAGCAGTTGTGTGATTCTCATCGTCCAGCCACTGTCACGCGTGTCAAACGTAAGAAAGGGGACGTTTTTAGGCGCCTTAACAGTTGCCAGATAATAGCGGAACGTTCTTCTTACCTAAACCCTCCTATGAAACATGCGGTCGGGAGTGATCGCCCGAGAGGAGAAGTTTACGATCTGACTCGGGAAATTGAAAGGTATACTGGCGCTCGAAGTCCCCGCTACACCGACAAGCCGTATAGATTATATGTAAACAGTGTAGAAGGCTACCAACGAACCCGGCTCCAATTTAGCTCAAGGGCGGACTTGAGCTGCAGAAAAAGGATAGCGAAACAGACCACTGTGAACTCGTTGAAAAAGAGGCCATTCGGGCCGTGCCTAGAACCTAACTTCGATACCCAGTGGCCTAGGTTCGCCAGACAGGCAATTGAGTCTAACTTTCACGGGTTGGGGATCAGAACCTCACGACTTTCACCGGTAGTTATGGGCCGGCACCAGGTAGCACAGGGGTGCGTCTCCTTCCGGCACTGGTATGAACAACTTAGGGGTGTATGCGAAAAGGCACGCCCCAGGCGTTCTATACCTACTAGCGAAGGGCGACAGATCGGTTTCTTGTGGTGGGGTGCGGGTACCCTTGAGATTACACCCGGTGGTCAGGCTGACCGGACCATTCGTCAATTGCTATCAGCGTCTACGGCCTTCACTTATAACCAGTCAGAGCTTCTGCAAGGAAACGACGCTGCACTGAGGGATCCCAGTCTGAAGGGAATTGATGATGTAAGAGAGACGAACCCAGTACCGTCCCGAGAGTATGAACTTGACGCCTGGGGCGATGGGGGCTGTTCAGGGCGCAGTCTTCTTCTTATGCAAGCAACATTCCGCCGAACAAGGAGGCGTCCTTCAGGGTCCCCCTCGATCGCGGAGGAAGCGGTTTTCCTCCATCATGTTGGGCTGGGGCCCAAGGGGAAGGTACATTTTGTGAACGCTAGGCGGAATCTAGCGCATTCAGTTACACCTGGGAGATTCATGCACGCGGGAGCCGCGCTGAATTGCAGACGGGGATACGCGAAAGTACACCTGACAATTAGCTTCCGCCTGCTCCCCTGGTTAAATACAGTTCTAGACCCGTTCAAAGAAACAAACTCTCGTGTAGCCGCCGTTTCTTGGAGCGGAGACCGCCAGCGTGATGTCCGGTGGACGCGAGATAATCTGAGTGGAAGTAGTGAATCCAGCTATTCCCTCTTGTCAGGGGAAGCGGCTTCCAACATGGCTCAGACGGCATCCATCGGAAATAGTACACTCCGTCAGATCAGCAGAGAGCTAGATCGTCTATCTATGCGCAGGGTTATTTGGCGAAGGCTGGTTGTTAACTCGGTGTCTGGATCCAGCATTCAAGCCATCAAAAACGCGTTCTCTGGTCGATTGGTTTTTAAGCGCTTCCACAGTGAATCGACGGTTCGAAGTCCGAAATCGGAGAGAAGATGGATTTTCCGCACGTCGATCATATGTGTCACGGCGAGGCATCACAAGCATTGGTATACCAGCAGGCGGGAATTATACAAGCCCCCTGAAAGGTCCGCAGCTCCCAGAGCGTTGGTGGCATCCACATCAGCTGTCCCGGTTCCTTCCGTTATAAGGCATTTATTTCGACATTATGAAATGGGAGCCTCCTGTATTCGCCTCGGCGTGCATCACACCAAACCAATTAAAGTGGCTCATCACTTTAGGTTCAGGTCCGCCGCCGGTGCAATGCCGGGGTGCATCGTCTTGTCCCGCCCGCGCATGGGAAGTTCAACCCTCCTGATGTGCCTCGACCCGCTACTCATACAACGTGCTCTGCTGACACGTGCAGACTGCGATATGTCTCATGGCGCTAGCGATGTATGCGTTCGATTAACCGGAGAAGGCGTTATGTCAGTTTTATTTCTGCAGAAATTCAGCTTGTCAACTGTGCAAAAAACGCGAGGTCCAAAACTCTACCGTAGCTTGGCGGGCGACAGCTCATTTACCAAACTCATTACAATCATCTCGGACTCGTACGCGAACTCTCAAAGTAATTCTCCTTCATTAGGAGGGATAAGCGACTTCGCTAACTCTTCTCCACCTTCCTTCCCCAGATTAGGACCTTACAGGAGTTGTAGCCGATCTGCACCCCTTAGTACTAACGGATTGGCACAAGTCCAGCCTCTTGCGGTACATGACAGTGACACCCTCCTTAATAGCAAAGAAGTCCGAGCATCTCAGGGCCGCTGGATCGGTGGCGGACTAATTAGCGGCGAGTATGGAGGTGCTCCGTCATCGTATGCACGGAAATCCCCAGTTCCGGAATTTGATGATCAGTCCACGAAACCCTTGAAGGGGGTGAGGGCCCGTAGTCTCGCTAAGAATTCTCTAAATGTACAGCTATTCTCGTGCATGTGGCGAGCGAACATAAGACCGTCCATTAAGCGGTGCGATCAGCTAAGTCCAGGGCTTTCAACGTCTGGAATAAAGTGGATTAAGCGACTTAAGAATCGGAGCCGTAGCGTCGGTAGGTTCTTCTTAGTCCGCGACTGTGCCAGGAGGATGCAGGGGACCAATGTGAACCTTCTAGAAGCTCGTCACACTGTCGACGCCTCGGGCGGAACGTCGTCGCTAGTACAAGACCCTGTGTGCTCGGATTTTGATACTGGTGGGGAGAGCCCAAAGTCATGGTTTAACACACTCTGGGGTTCGTTATTAATTAGCATAGTGCATGATAATGAACAAGGGCCTAGCTCAACCGCGCTGGATTTTTTGAACCGGACGCACAGGCAATTTATTCCATTTATGACGTACGACGCTACACGATATGAATCACCAGGCACTTGTCTGGAGGTCCGTTTTACCACAGGTCTCTATGCTCTCGCCGCTCTCACCCAACTAATACGGAAAATGGAGAAGAACGGGCTTGTCCCACTACAGAAGGTAAATCGTTCATTGGTCGCTGTATCCCAAGCTATATTGCTGGTGATCAGACCCGGGTTGACGAACCGCTACACAGCTCAGCTTCTACCACTTGAATTGTGGCTTTATGGACTGCATGGGCTTTGGTGTAAAGCGTCGCAGGGTCCTGGTAACCAGTATGTGAAATTCCCGCTAATGGACAGGTGGGAAACAACACGAGCATTCCTTTTCTTCTGCAACGCAGCCGCGCTTGTCGGCGAGCATTCGAGCCTGCTAACGGTAGGCACCAGACAATCGCAGCCTACTGCGTTATGTCACTTCGGGCAGCTGGTATGGCTCACTCATTCCGTTATAAGTCTGGTTTTTGATGTACTTTGGATAAGCAGGAAACGAGGGTCTTGCACCCGTCGTGATCCGAATTGCAACGTGTTTGGTGGACATTACAGTGTTGTGCACAGCGTTAGTGCATACAACATAAAATCGGTCTTAATGAATTTGAATTTCTCACTACTGGCCGTATTTCATGTTCCGCCCGGGTCTTCTGCCACCAGGCATATGTTTTACGTTTACGCTCCCGATCTGGCAGAACCGGTCTGGTTAGGAGTCCACTCTGGTGCGATGCGCTGCTGCGATCTGCTAACCAGTACGGATCCATCTACCGGTGTACAGGCCATTCCGGTAAGTAAGACTGCACCGGCGGACAGCTCTGAAATGATCGCTTTACGAACTCAACAGCATAATCGAGTACGGCGTATCAGAGGGATACTCTTGCTTCGATTCTCTCACGACCGACGTGCCGGCCGGTACGTCCTTAAGGCTCGTTGGCCAGAACTACAGCGGGCGGGTGGGCCCACCTCAAGTTGGTCCGGTGTGGCTAATTTGATTATCCCCCTTTACCCAATTCCTACTTATGTGGGTGCTATGGGTAGCTATGAAGTACTCTTCACTAACCGAGGACGATGTCGAAAAGAAATTCTCAAATGCGCCATTGTAGCTCGTTACGGAAGTGGCTTGTCGGTCAACAGCACTGGGTTCCGTCCTGTCAGAGCGCATCTACCAGGGAGTATTATACGTATTGAGACAGGCGACCGACGCGACAATACTCAGGAATTAGGATCTCCAGGAGCGACAGCCTATCCCCACACCGAGTACGGGGGTCATGGCTACCTCTGCATCGACCACCTTGCGAGTACTGTACTAGAGCCAGGAGAGTGCGGTTTGTTGCGTCTGCTTCTGATTGCGGGCCTCGGTTTACTGCCTGAAGACGAGACGCACAATCTGCGGTTTGCGTGGTTAAAATCGGGTTGGTCCCCCTCGACAGAGCTCTTTCCTGTGTTGGCTCTATCAGGTATGCATTTTCGGCAGCTAGGATCCCTTCCGGTCTTAATAGATAGTTGCCCCGGAATAAGTCATTATCGTTGGAGTTCATCCAAGGAGGCCCCGGTCCCTTGGGATTATGCATCACTCTGGCATGTACGGACTTATCGCGTGTGGCGACTTGCATCTCTTTCCTCCTCGTGGCTGCGGCATTCCGTCGGAAGGGTGACTGCATCGGCGACTGCACGATGCACGTCCCTTAGGGGTGCGCCCTACCGTTTCGACGGCTTAGAAGTACGGCATGTGCCTCCAAGACGTCCGGCTCGATTGGTGCCACAGGTGGGTGTTATCTGGCCGACCACGGGTGGCTACACGGTAGAGGGTGACAAGTCTCGACTCCCACGCAATCTATGTATGTGGAACCGAACTAAACAAGACACGAAGCTTTCCTCGATTAAAGTCATATTACTTTCCGCCGCTGCCGGCCGTCCGAACGCGTTGGTTTCCGTATCGCTGGGGAAGTGGTGGTGTGGTGATCCTAATTCGTATAGATTTTGTGCTTATGCTGAACGTAAAATCTGCGCTGCATTTGACTACCGGCTCAGTATGTCCGGTGGCAAATGTCAGCGGCAGACCAACTCTCGGTGCGGAAGGACCGTTTTAACAATGATATTTCGGCTTATACTGATCCTCACGCTCGGAAAATGCACGATGTGTGCCTGCAACAAGCCGGAACGACCGTCGATGTTTCAGCTAACCCCGCACTTTCAAAATCTGTTGATATCATTCCCACGGTCCCGCCCATCAATGGGTAATCGCCCGAGCTTAGGCTGCTCGTGCCAAGCACCCGTTATGACTATCTGGGTCTCTTCGTTAGCAATATGTTTATTTTGCTTTGGCCAAGGTTCCGAATTCTATCCCCTGGCTTCGGCGGAAAAATCCCCGGACGATGCCTATAGCGCTCACAGAACATACACGAGCCGACTCTGTACGGTCCTCCTAATGAAAGTTCTTCGGCAATCTCCGCCACTTGTCTCGTGGTGGTACCTGGCTCAGATTACATGGGGGTGTAGTGGCTGGACTACGTGCAACGCCCACGTAAAGGAAAAGTGGTACCTCCAAAATGGTGCGCTAGGGTTGCAGATAATTGACCCTACTCCTTTACTAATATACTCCCCGCGGCCCTTGCTAATCTGGAAAATGGCCGTGGGCCTGTATAAGTACAGTTCACAGGATCAAACCACCAGCGTTGCCTTCGGACTGTTTCTCTTGCCTGATCTTGAGGCGTACAACTTTTGCCCGGAGGCCTGTGGTCCGATTTCATATCCTATAACAATGGAGGATACACGTACCCGCGATACTCAGCTAGCGCCACGAGTGCAGTCTTACCAGACCTACCACCAACCAGGCCCGATCAGGCTCATCACGGGTATTTATATATTCTCCAATACTTGTTATGACTTTGTGTGCCATATATTGTACACTTCGTCGTCCGGTTCAGGGAGTCCCGTACGTGTTCATGACTCTGCTCTAGACTCGCGGTACCGAGCATGTCTTGATAGCAACACCTCTGAACTATCCCTGCCATCTACCTGCTCAAGGACGCAGGGTGACCCTGCACGCCATAATAACGTTCGCGGAATTGGCATGGCGCCTGGATACTGCGGAGTTACTCCACGGTGGCTAGTAACAAGTTTCCGGCCTCCAAGGGAAGGTGCCCGGATAGGGGAAGAATATGGCCTATTTACGTTGATATTAGACCTCTGGTTGATGCCGCGTGCGTTGATACGTTCGAACAGGATCATTGACTTCTTTCTGGCAACAGCAATGTTCACAACCCTAGAACAAATCCCAAAAGGTAAATGCAAACTCACCACTCCATGGTGTTCTGACCATAGTTATTCAAGACCGCCTAATTGCCAAAGGCATACTCAGTCAATGTTACATGAAACTCCAGTTTTTGTGCGAAGGGATACAGGTATCACAATGGCGGAATACCGGACCGCCGAGCACGTTGGACCCGCGTACCCCTGGCTAAGCCCAGCTAACTGTTCCCCACCGTCCGCAGCGCATGGCCCAGAGGCACACGGGCTCAGACGCTCAGACCTGAGCTGCACCGGCGTACTCCGGCGTCTCATATACAAAATTATAAATGTATGGCAGGTCCGTGTTTCAAAGAGTCGTAACAGTAGCGCAAGTACAATGAGGGGGTCACGCAAATGTCGCGCCCTCTGCAGTAAATCACAGGCCGTAACGTCCCTGGGCAGTATTTACCGCCTAGAACTTCGTTCATTAGTGCAACATTGGCCCACCCCTCTAAGAATAGGTGAGCGCTCCGCGCGTTTACCTAATTGGATTGTACGGATAGTGAGGACTTCGCGGAAAAATAAACAAATAACTCTTAATAAACTTCCCCCGCCCCGTGCCTTAAGTGCCGAAAACCACAAAACGCTTAGAGCGAGACCAAATCGACAACGTACCGCACAAGATGGGAGGACAATCAGCCCTGGCGGTCGTCGACAAGCGTTTCAACTTACGTGTGCGCGGAGACTTTATATTCCATCCGGATACTCACTTTCTTTGATCTGGCGGTGTAAGACTCAAGTCCTCACTCGCCGTACACGGTCCTTAGAAGCTGCGTCATGGCCGCGGATAGAAACGGCAGAATCAGTTTCGGCGCCCATGGGTCCGCTAACCCCCTCCAATCTAAAAGCCGAAGGGGGATGGAGGGCCATACTCCCTTACAGTTCTCATTCTGAACACGGCGTCGGGGGCCGCCTCTCGAAAGAAGTTTTGACGCGGACAAGGGGCGAGTCAGGGCGGCAATGTGCCAACGACAGTCGGGAAGCCTACGGTAATTCAGACCTACGGGATCACATAGCTTTCGACTCTATAGAAAATGGTTGCAACCCCAGGAAGACACGAGCCCCGTCAAAGCAGCTTAATGGGCAGAACACCTGGTTCGGTTGGGAGATATATCCGGGTAACTTAGACTTTCGGACACACGTGCTACTAAAAGAAAGCCGACTGGATTGGCAGGCGGCCACGCAGCTGCTGGCAGATCTTTTATTAATGAATAATAGTGAAGGGTTAGTTCCTGGAATCTCTCCCATGTGGGCCCATAACGTACGTTGCCTACGACAAGCGATGCAGAGTCGAGTGGCTTATTGCCTCCAGTGGTATTTACAACGTCGGCTGATCCTTGGGGGGGATTCTTTTTATTTAGTATGCTTTACTCGAGCGCTGAACCTCCTAAGCTGTCCAGTGGATTCAAGGCAAGTGATCTGTGGTGTGCTCCCTGAAGGGTGCCACTTCCCTCCTGCGCCACCTTGGCCAGATACAAGTGACCGCAGTTTATACTATTGCCTGGACGCGGTAGAATCATGGCGCCGATTGACTAAGCGGCCTGCATTGCCGAGCAGCAAAGTCCATCCGTCCCACATGAAATCTCTTCGGACACGGGGTCCTAAAGGGACGATAATCAGTCTGGAACCTGGGACAAGACCTACGTCCGGTCCGGTGGTTCCCGTTTTCCACCGATGGACCAATGGCTCTCTCTTTTCTTGTGAAAGCTTACGATGGCACCGAAGAATCCGCCGTGCGAATGGAAAGGCTTACTCGGTAGGAAACCCTACTCAACGCAAAACCGACCTGGTGATATGGTTTGTAGACGAGGCGTATCCATTGTTGAGGATTAGTTACATCGGCTGGGGGAATAAAGAACGCCAACTCGGTTTCGAACTTCTCACCATCCCAATGTTGCTGGGAGGCGGGATCTCGCGCTCCCACAGCCGTAGCCTCCGGTTCGCGGTCGAAAGCTCCAAAATCAAAGGCAGCAGTCAAACGACGCATGCCAAGCTTGCTCCCCAGGAACATAGTGTCGAGCCACGGTCCTTAACTCACCGGTTAGTGCCGAAATTCAATCGGCGACTGTGCGCAGATGGTAACCGGCGGCTTGCTGTCGAAAACCAACAGCCCGGCGAAGTCACAACATATTGGCAACTCGGGTGGCTGTACACCTTACTGTTTCTGATGAATTACATGTCGGTCGCGGGCAGACGAGCTCCTCGCGCTAGCTGGGTCTCTAGTCAGAGCATCGGCTATAGCTTGCTGTTCGTCCGTCGATCTCTAAAGTCCCTTAAAGGCGTATGTATTCCGAGTCAATACTCTGCCAATGCAAGCCTAGGAGTTATGGTTCCTCTGCCGGAACAGAATTTAGTTGATGCTTCCTTAGCCCCCCATCGACTATGGCCTCCCGGAAGTACGGAATCGATGCAATCTGTTCTGGAGAATCAAGTGAGTGACGTTTCGACGTTGCATGGACTCGTCCTCTCACTTCTTTGGCGACAACCACTCCAACGAATTCACCCTGCATCTATGGACAAGACGCTGACTAAGGTATACGCGGTTCAATGGCGGGGAAGTATCCCGATAGTGATCCAAGGATATGAGCTGGCAACGGCTGCTCGACGCCCACCATCGGATAATGGTAAATCTACCTTACCGTTGAAAGCAAGGCTGCCTTACGGTCATTTTGTCCCCTGCGGCCGGATCCGTTTAGAGTATGTCCAGTGCCGTAACTGGGGCTTACTCCCTGTAGGGGGCCTGGAACGCAGTTTGCCCATCCGTACACCTCAAGGGCGAGGTGGACTAATAAGCATCGGCATCCTGACGTTTCCCAAGTACGCAGTTAAGTATCACGCATCTATGTTAGATCCTTTTGGGAGTTCGATTCGGGCAGCCGGGATTACACGCGTCGTTCACGAAAAGATCGGTCACCCTATGACGGAATCGTATACGAGTTTGCACCGAGGTCGCTCTGGGGTCGGGGTCTGGCGCTTTTTATCAATTCACCCAACACGGCTATCTCGTGTATTAGCCAACCTGACGCAGAGCTTAAATTACTCGCAGGGGGCTAGCGTACCATGCGCAGCAATCCTGTCTGGGCAGCCTGCTCGGAGTTTCCCACATGTACCCTTCCTCTTCCATAATGATCGACGATCGAAAGTATCCCGTCCTTTACTGTTACGTAGCCATAATCCTAGGTTACAGGTGTCCGGTGACGCTATGTTACAGCTCCGCCACTTCGCCACCCTTACTTATGAAATCAAGCGTGCATACCTCACTTCCGGTTCCATGCTTACACTTCCTCGTGTCGCCTTTAAGGGATTGAACAGAACATATCCAACCACTCTCAACACACCCCCAGAGAGATCGGGTTGCTTGGAATTTCTCTGTCGAGTAGGCTTCCGGAAGCCGTCGTGCCGCAACTCCGTTCATCATAAATCTTCTTGTACCCGTCTGTCAGGTCCAGGCGCTGCCGTCAGGTCAATTGATTCGAATTCTCGGAACGGCTCATTTTTGCGGGCATACTTTTCACTACTATTTGTAGGGCAGAACAATAGCAACGAAGCGTGTGCATTTATCAGTCGAGACCGAAACACAAATATTGGGCTCGACGGATTCTGTGTCCTCCCCGGTCCTGGATCTCTCGAAACGCGCTGCGGAGAACGCACAAGACCACACTCAAAGGAGTATAAACGTCCGCTTTTCTGCTGTTCGAGTCGACGCTACAGTGCTAGAAACGGCGGGGCAACTCGGCATTACACCGTGGGTTATTCGAGACTAACGTCGTTTTATGTAGGGGTGTGGGTAATCATCTACCGCTCGTGGATTCGAGTCCGTACATTCAATTCCAGGGGCAGCGTAGATCCCGAATGTTGTGGATTGCCAGATTCATTTTCGCTGGCCTGGGATGGGTCAATGCATTTAACGCATCTACCGCTGATTGTGCCTGGGCTTGTTGCCGTATCATACCGGCGTGTGCCGTCTTCGCGTGTGAGAAGCGCTTCGAGACGCGATATTGAGTGGGGCCCGTTGACTACTGGACTATACGGTCTATCGAACAATTATCCACGGATGCTTTCTAACGAATCTTTTAGAGTCGATAAAAGTCACTTTATTCAACACGACACGTCTTATTGCTGGCCCACTAGAGGGTTTTATAGGCACGAGTTCGACCGAAAGTCTTATCAGGGATATGAGGATTTGGCTGCGCGCCTAGTATTAGTAGCCTTCAAGTCGTTTTACCCCTTGGGCAAAAGTACCTGGACCGCATACATGGTCTCTTACAGCGAAAACTGGTTAACAAGGAATAGCCATCCGGGAACCAAACATACATATAGTGTCTCGTCCATCTCTATGACTTCTTCATCTGAAACCCACGAAGCTGTAATACAGCAGCCCATAACCGCTTACGCAGCGCAGAGGCCTACTGGAAGAGCGGGTAGCAGCGTGAACCATGAATTCTTTACAAAACCCACCTGCGACCGTATCAGTGCAGCCTCAGCAAGTGTGGCGACTGCTTTTGGCCGCCGTATCGATACCTTGTTATTCGCGAATCAACAATCAACCCTTGCCCCTGGTCAGGACAGATTACGGGGGACATCGACACGCGCCCGGATAAGTCTTACGTATCTCGCGTCCTCAAATCAACTGGATGGCGGCAGGCTCCAGACCACAGTAACCGCGTACTGTCCGCGTACACCGAAGAAGCCCGGGGGAGGTCACTATGTTAACTCTTGTGTGATGCCGGAAATACACTATCTCCAAGGATTACAGTTTACCCATACCCGAGTCACAGGTCCAATAAAGTCTTACTCTAGCGTGCACTCCACGTCACGCCAAGAATACTTCGTTTCTACCGCGAGGCTTATCCGGCTTTCCCAGGAGCGCCTTGCAGCCCCGATACCCTTAGTCTTTTTCGTAAGAAGCTTCCCTGCTTGTAGAATACAAGTCACACCAGACTCCCTCCGGCTGACTGTTTTGTTAGAACGTCAGCACATGCTCCGATTCGTCCTTGCACGCCTCTTCTTCCTGATGGGAACATGCCCCATCCTGCGTGTTTGTCGAAAAGCGGGAACCACATCCACCCAAGGGGCATGCCGATCCACACACGCTCAAATCACGCGCCAGAGAAGGATACAAGAGCCTCAGGATAAATTCGTAGCCCATTTCGCCGGGACCTTCAGATTTATGCTCGACCGGTGTCCGTTGCAACGTCGCCCTATGCCAGCAGGTTTAGTTATCTTCGTTCTAAATGTACTAACTGCCAAGCGAGTTAATTGCCTTACCAGTCCTCCTCTGCAGGAAGGCTTCATTCTTATCTGTGCAGGCCGTTGCGAAAGTCTAGGGCCCGGTATAAACATGTGTTGCCTACCCAGGAGAACACACAAATATCTCCGGCTCCGTTACCGTAATGTATTATTAAAAACTGCTGGAGTGAAGAGTAGAGTTATAAATATCTCGCATGCGTGTCACTGGAACCGTGACTGTCTAACGTTCGCTAGCCGAATACAGCCCGAAGGTCTCCTCATGTTCCGTCGACAGGCCTTCAAGATCCATGGTTTTTGTATTAAGCCAGAATTTTGCAGCTGGTCCTATGGGGTCGCTCGTGGTCAGACATTGGTTCGGCATACCTCGGCACACTCCGTGTCTGGCACCGCTCTAAGTATTTGTGGACCGATCAAGAATATAAAGCACTTGCCATGGCTAAGACTTGGAGGCATCGGATATCAGGAGAGAAAAAAGAAGGGACATTGTACGATGGCCAGGACCGAGTTATGCAGCTCACGGATGAGTATTAGGTCAACCAACCCAGCGTTCGGCGTAACCATGACGGCCCCGATCTATGACGTGATCAGACGACTCAATGAGGCCCTACCCAACAAACCGCTTGATTTTTATAAAAAGGAACCTATCCATCCCACAGAGGCGGGCATGGTCGTGAGTCCCCTACCATTAGATTCAGTCGTTTACACGACGATGGTAGACACGTTTATAATCTATATTAGCGCCACCGCCGTACCACACATCGCAGTAGGGCAAGCAAAGCGCTACCCTTATGAGAGGGGTGCAGGGAGTGTGCCTGGCGAAAATCATTGGGATGCTCTTTCTCGGATCACTTTTCCGCAGTACCAAAGATATCGCTTACTTGTACAGATCCGTATCGAGACAGTAAGCACGTTCGATCACATCCCCAATCAGTTTATTGTGGGTCTCGATGCACACTTCATTACGGCGACTCAGCGCTCGGTTGACGTCGTAATTTTGGATGGTGAGTATATGCGCCTGCTTGATTCCAATTGCGCCCGAGTTCACTCTTTTTTGCGCCCCCTAAAGGCAGCTACGCCCAAGCAGGACGATTCGGATATTGCAACCGCGCGAATGTCTCGTTCTATATGCAGCTCCACCCTCGTTATCATCAATGAAGCGTTGCAAGAAGGTTCGAACAAGCAGGACAAGAAGAATTTGCGTAGCGCCATGGTAGGTATGTTCGTGCCCCGTTTAACTAAATACGGTCTGGGAAGTGCATATTCAACCAGCATGTCCGTACGCAGCATACTTTTTTATCGCGAACTTACGGAAGTCAACAGGATCCTAGTCCGTTCACATAGCCAAGTGGGACTGTGGCGACAAAGTTTTTGTGACAAGTTAGTATATATGGCGCGGTCACAGTGTCACACCAGGAGCAACATAAAAGCGCACAGTATAGATTGCCCCGATAGACCAAGAGCGAAAGGATTCTGGCACACCGCGCTTATGAGAAAAGTAGCCTCATGTTGCCCATTCATAATTAGGTCCGGCAGACCAAGTCATGTCGCTCAGACGAAGCAATTTCCTCCATGCCACTTTTACTGCATTGTATCGGCAAAGGGAGCCACTGCCACGGTAAATTATCTACAGTTCGGGGACTGGGTTTTGAGTAATTTGACACGAAGGGTTGACGTATCCGACAAAGCATCTGCTAGATCGCTCGGGAGCATACATGGTGTACCTGAAAGAAGTTTCAGTTCTAAAGCATCCACTTCTCGCATATGCGTTCCACTCAACCCATGTGGATTTAGCCCTCGGTTGCAAAGGGAGACTTGCCCTGATAGCTTAAGGTCGCTCCCATCCGCTCGAAAGGCCGGTTACTTCTTTAGGTTCCTAGTTGCAACGCAATTTAACATACAAACGTTCCCTTGCGGTAGGTACTCATATTTCGGTCAAACTTTAAACTATTTAACGGCGCGCCAGGACCTCGGACCAAGCGTCCAACGATTAATCATTGCGTTATTGCGTCCTGTAAACTCGACCTGTGCAGGTGGCAGGTTCACTGTAAGCTTAGATGCGCCACAGCTCCTATGTTGTCCAGGGCTGAATGGCGCCCACTTGCTTGATGCCTGTGCTTCGCCTTCCCAATTTCCGCCGGGACGGTGCCGTCAGGAGCCGGCTGTTCTGTCGCTTGATCGGGACCCGGCTAGATTGGCCGCAGGGGCGAATGAACTATCCTACACGCCGCGCTTAACTGCAGCTAGCCAAACCAAAAAGTGGGAACCCGGTTATACCTTCATGGTAAAATCGCATCTAGAGGCAAAGGGTCGAGCAATCATTGTACACGAGCCTGCTTGGTGCAGACGAGCATATATCCTGTCACCCGTATCCGCTAAACTGTTTTATCGGCCGACGAAGATCGTAAAGATTCCCGTTGAACCCAGGGGTGCAGCTACGAACTCGTGCTCGTTTCGGGTCGTGCTGCCCACATGGGAGTGGGGCGAACAATCTCAGCAGGATCGCCAACCTGCTCCCGGCTATCTTGTACCTCCCGTGTCGTGCATGGTGCAAATTCAAGTTTTCGTCCGAAATAGCCGCTGCAGTAATGCCGACGCTCCTTCAAGCCATCGAGTCATCACTCAAGGGGCACCGACCACTCGTAGGATCTTCCTTCCGTGGACTATGGCCCTGTCCCGCCCCCCTATTTTCGTGATTTGGGGGCAACACTTAATGTCGATCTACCAAAAGACCCGGGCTCGTCATAAAAGCTTCCGAGCACTTATGATGGACTATGCACTCCTGCGCCAGCCACCAGTCGTCGCGTCGCGCACGGTATCTCTTGCACCTTTTATCTGGGCAAGTAGGGTACACGTCATTCGGAAAAAGCACGGGTCCCACAGACTTGCAAACGGATTCAAGCTCAAACAGAATTTGACTCGTGCAACTCGCTTGTCCAACGCCGAACCTAATCCTGGCAAGAAAGCATCTTCGACCTCGCTCCCAGTGACTAGCCAATGTTATATTTCGACACGGCCACCCATCAGTCCAGAACCGCGGGAAGACCATGCAGGGTCAGGTACGTCCCAGAAGCTGTTTCATATTGGGGTGTTGACTGACACAGAAGGAGCGAACCTGCCTCGGTTGTCGACCAACCGGTGGAACGCCCTTGTTGGAAGCCACCGGTGCTTACAGGATACCATAGATATAACGTCCTGGTGTGAGGGTACTGCTCCTCCTAACACAGAGTCGGAAAGTATCCATCAAGCTTGCTCGCTGCTAACTTTTTTCACGCCTTCTCCCCAAAGATTCTCGAGCTCCCACAACGAGTACCTAGGGTCCGTAAGTACTTCAGTACTGGCGCCGATTATGCGTTCGTCTGCAATGGGTGCTTATCCGGTACTTACCTTGATTAGACATATCTTTCTTGTGGCCCGTAAACCCGCCATGTCTGTGGGGGCCTGCTCGTATAGCTACAGTCTTATGCCATGTAACACAATCTCTCATCTACGACCCGTATACGGGCAATTCCAACATAGATGGAACCTCTGGGCGAATCGAGGGGTAGGAGTAGCTCCGATGCGACTAAACCTTCGAGTCTCGTTCGGCGCAGTTAAATCTATTGTGGACGGTGGATTGTGCCATATGCATGTACTTAAGGCCTCGGAGGGATCAGCAAGGAGACGAGAATGGCACCAATGCACAGTCGTGGTTCCTCCCGTTCGGTACCGATTCCCTAAAATACCTGATACACCTTCGGCGGCACATCCCCCCGGCAAAAACGGAGAATCTATTTTACTTGGTCAACTAAGAACGGGTTCGATCGCACCAAGGTGCCTAAATTGTCAGGATCTCTCGATCGACAACATTAAATCACTCGTACGCTACTTTGATTATCTAATTCGCCATACCTTGAATCAGAGCCGTAGGTTGAGGCGATGCGTAGGCAGATATAGACGTATGATTCACGGGCCCAGGTGCCTTTTCCAAGGTGGAAGGTCCTCGTCCTGCGCTGTAATTTTGCAGCGACTTCGACCCACCTCTGTTGCTAGGTCGCGCACACCAGTCGGGAGGAAGACGATGCTCTTTCCGTCGGACCCTATAATTCCCGATATCTATGGCCAACCTCACAGAACGACGCCCGATACAGAAAATCCAAGGTACAGTCTGGGAGCAATATGCCGTAGCAAAGATGAGGGAATTCCACGCTCCCGGCCTGGCGATTTTATTTCTGGCTTTACAGTTGGGGTGATCGATGTCCTCATCAGTCGCGTTGAAAGTAATCGTGCCGTTTCGATCGCATTGCCGGGTGCTTTCTTATCCTCGCTAATGACAGGAGCTCTATCAATTTCGCTAGGTGTTTTTGCCCAACGACCTGTAAGGTCGCGGCTCGACTTTGATGCCGTAAGTGTTGATCCAATGTTACTAGTTATAACCATATGCACGACAGAGCGGCGATTCGCAGCGCAGAGTAGCTGGTTGATCGAAGTGCTGGAGACGTACTGTGCCGACAACCTAGCAGAACGCATATGGGGATCAGCATTTGAAGAGAGGCGTGCAACAAACGCTATATGGAGAAGTTCTATGAGATACTATGAGTCAGACATTCATGTTTTCAACCGGAACACTATAATCGGATACACGCCCTCGATGTTCGTTACAGTGGTTCAACTAGATACGAGGGCTAGGCACTCTTTCAGGAGGGGGCAGTCTTGGGGAATACAGTTTCGCAATTCTCGATCGGCGCTCAGTGTGGTTGCGTTGATTGGTGTCCGTGCAGTCTTAGATGTCTGCGGTGTCACCTATACCCTTGACAAAACTCCCCGTTACACCTCAGCGTTAACCGTTCGGCGTCTATATTCACGCGATCAGCTACGCGCTAGTAGACCTGGTAACAGTATAACCTCGCGCTGCGGATCATGTTGCGACACGCCTGAAAATATTGCCAGAAGAACGCCGTTCCAAGCGAGGGTTACTGCGACGACCCGATCGGACGGGCGTTCAAACCATCTAATGGCTATTTCCTTGAACAGTGTCACAGTCCGTCGCTGCCTGGAGTGGATCTCCCTTATCTTCTTTGGACGGATAATAGTTGCCTCCAGCTTTCATCCTCCGCTTTCAGTACGTCGATTGATGGTTCGCAGTTATACTCAGTACCCTGATTTGATTATCCTAGAGGTGCATAATTTGCGGTTTACAGTATCTCTCACCCTTCGCAACATCACGTCGTCTGCTGTCGACAAGACTGATGTCGTGCGTGAGCTAAATATCTATCACAGTTATAAAGTCTTCTTATGTAGACGAGTAATAGATCTGACTCTGTTTATTGCCAAGCTTATGGTTATGGCATTCTTAACTACACGTAGGGTGAAGCAAGAAACGAGGAGGTGTTTGAAAGAAGCCCACAAAATAACACTATTCATCCTATTGGCTTCTAATCCTGCTAGATTGGTCGGTCGAGCAGGAATACATGAACGCCACCCGTTAAAGTTGAGCCGGACGCTATCGGTTTGCGCAATAAGAAATCACATACCACGCGAAGGGATAGAAGAGTTCGACCCCCCGCTGAGCGGCTGGGAAAGCAGACGTTTCGGGTGCCCAGATATGAGACTTGGTCCTTGGCTATACCAGGCCCTACCGGAGGGTCCGTCACAACTGAGGCGACGTACTGGGCCACAAGTACCCAAGTGCCTTACTCGTGAGGTGTTGTGTGACTCGGTAATCCGGACATACAGTAAATGCGCGCCGTTGTCAGGGGGGACCGCATGCACGCAATTCAGATGCTCATCTGGAAGTACGTGGTGGATTATGGCGCCCCGCTCTACCGGCCCGGATAAGTTTCCTAGGGTCGCGATTCCTCCGAGTATCGACTGTAAAGTTAGTTTCGAGCGCCGCACGTGTCCGTCCGACGCTTCGAACTTTCCATCAACAGTACAGCATCATCCACATTATTACCCCCGGAATGTTTGCGCTCTCACTTTCCCGCGACGCTGGGACATGAAAGGTTCTTCTTCTGGAAAGCGGAGCCCATTTATGTTCGAGACTATTGCTAGTTGTACCTCCTGGGTGTTCCCCAAATGTGTACACGCACCGGATACTGGCACTGCTGAAGGCTGCAGCCGCCGTCGAGCGTGCACACTCTGTTGTATCGTAAGTTTCCTCGCCTCCTGCTTGGGCACCGTTACATCGCCACAAAACACATTCCATTCTGGCGATACGTCGCCGCAAGGACGCAGGAAATCGATTTCTTTATCGATGACAGCACCGACACCTTTTGATGGGAACTTTATCATCACCACTATTATCCTGGCGATATTGTTTTGTCCCGTGCGTATCGCTGGGTTACCGGCAGACTCGACAGACAAAACGGGACCCCTTTTCAAGGTTCTGACACTCCCTTCTATTGTGTTCTATAGAATGAGGACACGATTCACCGTCACATTGGTTCACACTGGTGTGCATCTTGGGGCCGCCAGGGTCATTATACCTAGTCCTTCCGATCCTGATAGGGATGGGCTCGCGCTGGCCTCACAACTCGTGCAGGCGTGGCTAGGGCCCGCAAGGGGACCTGATTTTAGTTCCTCTATAACGCTTCGCGGGAGAACCGTAAGAGAACAAATTGTTAACTACTGGGTGGCGAGTCGCTCGGGGAAATTTTTTCAAGATTATTTGGTCTCATTTTGGGTAATTTGTTTCAAACAACACATCTCTATAAAACCTTCCGTGATTATTCTAAACACGCACTCAGGACAGAAGCTAATCTGCTCTGACCACCGCGATCTGCCTCTCCCAGATTGTCCTACAGTCACTCTAGCGCAAAACTTTAGGCCAGCCTGGCACTCCGAGAGAAAAGCATGGCGCGCGGATTGGGAGGCAAGGCACCATAGACTTATTATGCAGCATGTCTCCGGTTCGACAAACATAGCGTTGCGTGGGTATGTGTATTCACACGCAAGCCCATGGTACCACAGCGTAGTCTCTACTATTTTGGTCACTCATGATATCGTAATAGGCGCCACTGGTATTGCGGTAGACCTGCCATTGCCGCTTATCTCGTCGGCCCCAACGGAACCAATAATCGGGATAACGTGGACCAAAAGCTCGTGGCATTCCTGTTCGGATAGTCGACTGGTGCTATTAAGAAGCAGGGAATACCCCGACGTTACGCTTACGGAACAGAAACAAGAGACACAGAAACGCAGGGCTCTTCCGCTTGCGAGATCAGTTTATCTTATATTGGCGACCTCCTCGCATCGCAGCACGCAGGTAAGGTCCCACAAGTTCCTCTTCATAGTACGGCCGCAAGATATTAGGACTTACTGTGTGACCTATAGTGCTAATGAGTTGGTTGGTGCACGGCATTGCTATGCGTGCGTCAAGATATCGAGCTGTAATGGGCTACCCTGCTTCGGGTGGCAGAAAGAACGCTCGGTTCATAGTGAAGACGTCTGCTCACCAATGGCAATAATATTTGCTTGCGCCAAAGACCAATCTGCGCTTTTACCCATCCCAGGTGACAACCTCATTTCAGGGTCCAGCTCGCCGCACCTAATAATCCAATCTTATAAGAGAGGTACCCCCACTAGCCGCAACCATAGCAATTATTCACTTTATGCAGCACTAGGGGGCATGCGCGGTCATGATTTCCGTATTCGCACTTCTATATGGCAACGGCCATGTGGCTCGCGTGAAATACATGCACGAAGCTTGGTGCTAACCCCCTGTGTTAACTTCGGTCTCGTAGCACCGCCAAAACATCCACGCAGGGAGAGCCAGCCAGCCTCCGGGAGGACCAGGTTCAGCAATCGTTACCGCTGGCGTGGAGGGCTAGATCGCGTGACTAGCCCACGTCTAGCCCCTGCGCGACAGAGCCCCCCTAGGCCGCCAACTTTGTGCCCCAGTGATTGCAAACGCGACACAGATTCCCCTGACCTAGGACACTTCACCCTAGCCTTCGCTAGTGATAGGTTTCCCTCAGGGTCTTGCGCCCGACTAAGTACAGCGTTCGTCCTCAGCGCGGGGCGTTTACGTTATTCCACCCAGCAGTGGCGGCCGAGAGGTCATGAGCGTAACGCCACTGACCTTACTTCGAAACCTCTGAACGTCGAATTGTACATCTCACTCGGGTCCTTCCACCTTAACCCTATCAACGCAGAGGTTCAGAGAAGGAAAGAACGTGCGCTAAAATATTTCCCTCTGGATTCAACTCTACCGAATTCAGTGTGGGTCAATAAAGATTATCGTCCGTATATGAACCCGCGAATCGCACATATCGTACAGCAGGAACCCTTCCTAAAAACGTTTGAGTATCGAGGACATCACCTGGTTGGTATCGCGTCGCTTCCTTACGCACTAAAGGGGACTCACTCGAGCCATAACCCTTTCTATCCCCGCTGCCTGAGATCTCAACTCTCCTCTAACCGGGTACCCACGAAGTCTGGGAGATCATGTGCAAGTGCTGGAATCAAATCAATACTCTATGTCCGGGGCCCATTTGACTTTGACCTTGAGCATGTCTTGTTGGCCGAATCGAGTAATACCTCTCTGGATCCAGGTTTAATTAACGTCCCGAGCGAGAAAAACCATTCGGATACAACGCATGTCACTTTCCATAAGGCGCGGGCTATTCCGAGAAGTTGTTTCGAAGAGACGAACACACCCATTCGAGCCCGAGCTAACATTACGTTCTCTTCCGACCGATTAGCAGACTTACGGGAAGCTGTTGCAGCCGACAAGTGCATACAGGGCCCGCGCCGCCTGAACTCAGATGCGATTTATGGAAACCATTCGTACGAATTCGGCTCCGTCAGACCAGGGATCACAAGGTCACTCGTGCACTATAATTGTCAATTCCAGCTAGGTCTGGGATCCGGGGTCGTCAGCAAGGAGTTTGTCGTATCAGAGAATATCGCCCATATACCCCCTCACACAGCAACGTCTGATCAGCGCGTCACCGCACTTGATGGCCGTTCACGAGATCGTCATTTCCGTATCAACACTAAGCCGATATCCCGATATGGTTCGGTGCCGCAAGCTTCCCCGACTCTTCAGACTGCAACACTCTTTGTCGCATACCAGCAAAATTGGGGCGCAACGGCCATTACTGATCAGGCCGGTTGCATTTATATAGACATGAGCTACCGCGCTGCTAGCTCACTCCCCGGGATAACTCGGACTACTCCTTGGAGCTGTTCAAAAGATCCTGGCGGGACTACATCATGGGTCGCCATGCGTCTATTTTCAGAGTGCGGGACTGTAGCTGCCGAAGGCCAGAAGTATACCACCCCGTCTCCCCCTTTATGTAGGGCTTGCGAACACCACGCCACCTCGTACAAGCTAGCCTGGGCGCGTCAGGAGTGCATCCATGACATTCACGGTTCGGCCGCGCGATGTATCATCAGTAAAAGTTGGAGACTATATATTAAATTTTTTAGGCATGGAAAAGCAACGCCCGGCAAAACCACACTGAGAACGGGGTGGATAATAGAAAAAAGTAGACCCCCACCGCACGTCACCTCACACTTTATGCTGAGTGGGTTATTGAGCACGATTATGACAGAAGGTATCGTGGAATTGGCGCTTAAGCATCGGCCGGGGTCGCCTTTCCCTACTCGTACCCCTATACTCTTCTCGTGTATACTCACTATATGGGACTGCCGCGATGTTTACTGGCAGGTGGTCGGTGAAATGGGCGCACTCTTAATGGGACTTCGAGTGCAGCGACATCTTCAAAACCCCAAGTTCGGGAGATACAGACTCAGCAAGCGAGTCGTTCTTGCGCATCCTGGCAAGGATTCTTGCCTCAAAGATCGTTGGGGACGATCAATCGGATCTCCTGTATGGTCTTCATTGCCTAGGAAAAACTTTAGGAGACAATTACCGCCGGGCAGTTCAATTGAAACGGCTTATGCCGGACTCCGCTATACGATTAGTAGGTACCTACCATTCAATAAATGGGTTATACTGATCAGATTTGAGAGAGCACGGCGCCGCCCGTCGGAGCTGCAACAGACGTTTCTCTGGGACGGTGCCCAGACGATTCAATTTAGAGGTTGTTCCCGGCCTCTGGTTAGGAGGGTCACCTTAATCTGGGCGTGCTCAGTTCTCGCGTGCTTGCCGAAACTACTATCGGGTTTCATACGCTACTCGCTTAAGCCGTATTTATATCGAGTCAGGCAATACGAGTATTCACACCGTAGTGCCACAGCGAAGTCGTTGGAAGGGCCATTCAGACTAGACTCCATGGTCTGCCTATCTGCTGCACAACAAGTCCAATTAAGTGGGTCTCTGAAAGAAGTTAGAAGATGGGTGCGGGCCTTGCTGGCCAAGGTTGGTAAGTCGCCCGAACTGTTTCCCAGTCATTTGTACCCCATTCAACTATTGTGTCAACAACTAATAACACGTGCATCTCGCGACACGACCAAATGGGCGCTCTACTGGTTCCCACCGTGCGGCGGTCAGAGTCTGGCGCTGAATGCAATCTCAGCGGGGTCTCAACACCGACTAATACGACAATTGCTGAGACGGAGTTCTTGCAGGGTGGCTGGCAGACCTGCCTTGCCGCTCTTGCAACCTCAAAATAAGGACCTCGCAAAAGGTCCGCGGGGCGTGCCACTTAGCTCGGGCGATTGCGAGTTTGCTGATCATCGCAGGCATATCGTCGGCGCGCCATTCCTTTCTAGTACGGCACCGCATACTTCATGTCCTGAACCTCCCACTGGGTCGGGCCGAGACTTCCAAGGAACGACGTGCAGATGGGCGACTGTACTTAGTTTCGATGCATGCACACATGACATGGACCGCCTGGCCAGACCAATCTCCCGCAAGTGGCATTTTGAAGCGCTTTATCAAATTACGGGTTTCGGACCAGGACTTCCTGTTCATCAACATGCCTGCTCCGACCGTAGGAACGGGTTAGAGTACACTTTCCCTTGGGGGAAATCTTATCCTCAGAAGATAACGCGCGTTGTTATCCCTTCTGTTCGTTTTCGAGTCGTTCTAAAGCCGGCCCCGTGGGCGACGAATGGATCTTTGTGGCGCCCATCCTACGTTCTAGCGTGGGTGGGTGTAACTACATTCCCCGCCAGGCAGGCCTACGCTCTTGCAGAGTCGATGTGGCTCGTGATATCGCTGACCCGACCTCATACTCCGATATCACTAACGTTTGGTAGGAGCCACTACATAACCCTTGTGGATCCTATAGGCGGGTATACGCGGTTATGGTTGTACAAGGACCCAGCTTCACCGAAAGAGGTTGGGCTAATTCTCCACGACGACGCCCTTGAGACGAGGCTGATGTGTTGCACCGGACTTGCATCTGTTGGCGGATTGGTGACGTGGTATGTGGCATCGACACTTCAACCTCAACGGTTACCTAATCCTAATGACCGCCCAACGGGGATAAGTAAAAGAAAATTTTTCGTTTTACCGCCTCACTACCCTGGTTACCCGTGTGAGTCAGGCTGCGGCATACATCAACGGGAAGGATGTATTGTACTCTGTTCCACTGCGATCCCGAAGTACCAATGTGGGTCAAAGAGGCATTCGGAGCAGCTCGGTGGAACTGACAATGGCGTAATCATGTTTGGGCACAGAGCATTGTCCATTCAGAAGAGTTTGCTATCTCCCAAGTTAGGCTCTAGAAGTAACCACGGTATATATTATCACTCGAGAAACCAGTCCTTCGCAAGATGTGACAGAATGAGCGTCATCGAGCGAGGATACTTCCTTAGAGTTCCTTTCCTGCCACAGACGACGCGCTATTCTGAGCAGACCAGTAGCAGCAAGCGGTGTTCGAATTACGGTGCTTTATTTTTATTCCGCGGTCCTTTTACGAGGCTCAGTTCTAAAGTTACCTTCAAAACTGACTCACGATTCGTTGCAGACATAGCATTTATTTGCCAGACCGGAATAACAATTCCTGCTCCTGGAACTTGCATGCAATTCGTCCCCCAAGAGGGGCGTGGAGTGTCACCTTCCGGTGGAGGGGCAACATTCCTGTCGACGCGTTGCTCTCCCTTGGCTACTGAAGGCTCAATATCGTCCGACGCTGGAACCCCATCAGACTGTACACCACGAGCAGTAGATAAACTTTATGTGGTGATATCACAAGCTGGTACGCGCCTCGAGGGGTTATACAACAACTACGGCGAGGCTCTCAACTCCTGGATTAAACGATGTGTACCATATCGCCGAAATACGCACCGTTTTGGGTGCTTGTCCGTCCACAAAGTTCTCCGTCGAGCTTATGTGAACCGTTGCCAGTTGCAGGTTGTCGGTAAAGTCTTTAGGGTCCATGAGCCAACGACAGCGCGCATTCTTAAGCTTATCAGTCAGACTGAGTATTATAGCGTTGGGTTCCCAATCCCCTGGCATTGTGTACTTCTCGCGCCTGAATTTGCGATTCTTCCCCCAGAGCTGCTTCGTCATGCCTTCTCTCCTTTCCCACCGGCCGACGACGGCGCCACTTACGTCTTGGAAGACCTCCCTAAACTTACTTCCTTTGCCGTGGTAAAGCCTTGGAACCAGCCTACGCCCTACTACAATGGAAGAGCGGTAGAACCTCATATTGCGTTCTCTGTGCCTCAACTCGAATATATGCACACCCATAGTAACACAGCGACGTCCTGGTGTAAAACGAGTGGGGCATGGGTGCGTCGTCCCAAACGACCGACTCATATCAGATCCGATCCCTTGACTTTGCCACTTCGCGCAAAGCACACATTAGGAAGTCAGGTCGCGTGCTGCCCAGCACACATATGCGCCTCTTGCCTTAACCGGATATCTGCGACGAGCTCGCAAACATGGAGACGTCAGGATGTGTCGATAGGTGGGGGAATACGTGAAGTGAGATGGGACTATTGGTCTTCTAAAGTGCGAGCTCTATCTGGGTTACGTGTAGTGTCATTTTGGTCGTCATGGATATCCCCGGTAGGTGGCGGATCGGGTCCTGTGTCATCTCCTCCAAGAACCCCGATGGGGAACGGGTACTTTGCACATGCATTAATACGTAACCATCCTATGATAGGCTCGTGGGATGTCTTCTGCAGGAGGAACACTTCGGTGCCGTTGGGGCGTCGATCAACATATGATGTTACACAGTACCCATATAACGCAACAGTTGCAAAGCATTGCGCCGTATTAACAGATCTTGTTAAAGCTATATCCTCGTCTTCTTCGAGTACGCTAGAGACAAAGAGATCCGGGAATACTGAAGAGAATGGCACCCAGAAAAAAAAACGGGGTTCTGATTTGAAAATCATTTGTTTAGTAATTTCGGCAGTACGCCTAGTCACGCTTCTCTTTCCCGTTGGACTCGGCCCACAATACAGTCCGGCAGTAATCATCTATACTTTACCTAAGGCATGCCGAGTTGATGCGTTACAGACCGTCTTGATTACTGGACCTAGCACGGCCCTCTGGCAGGGACTGAACTCAATTCCGACGTATGTTACTTTCCAAAGGTACAGTAACAAACGAGCTGGCATCGTTACCAAATATGTCATTAATATAGTGAGAAACAAGGGTCTATTCCGCGGGACCAATTTAACTACCCTGGAGCAGGTCACTTTCAATATACAGGATCCTGGAAAGGACGTCCTGTCTTACGCCGAAAGTCGAGGTCAAAGACGACGCATTCGAGGATTCCCGACGATATGGCATCTTGCACTGATCCGCCGTAGCCGGGTAGTACTTACGAAATTGGGTACTCGCCTAGAACTTGCTGCCCTCAAAGCGCAAAAGAAGGCGCGAAGATCGTCGGTGTTTAGTCCAATGTTATATCTCCCTCCACCTTCACTCAGCCGGTCAACGTATGTACATGCACAGCGGGTGATTATGCCCCACGGAAAATCATGCCGGAGTAGATGTAATACTGGAGGGGCAAGCTCGGCGACCGCGTATCTTACACAATCCCCGAAGCTTGCAAGCGAGCGAACTATTGGATACACGGGGTTGGCTTTTATGGTTCCAGTACGTCGGTTATTTATGGACGGCTGGCTATGTGGGTACGGATCCTCAGTCATGTGTACCGAGAGGCGTCATTGCCCCAATCTATTTTTATTGGCGCGGAAGGTTCAGCGGAACTGTCGGGAGCGATTTGCTGGCTCTTGCATGATGACGAGCCGTCGACGTTGGCTGTTCTATCCCGACATGTATAGTAGGAAGTATCGAATGCTTACCTCGCGAGACTGTAACCAGAAGCTTCTCACGGACCGCCGAATCTCACGATCATTTGTCGCACTGTGTGTCAAGCCGTCGGGCTGTGGAATTGCGGGGGTGCGTTTCTTGAACGTCTGCCTCGCGTTCTGCCGACCGGGAGTACCCCCTAGAGCCAATTGTGGGGATCCGGGATACCTGCGTTATACGCATGCTATCTGTCGTTACCAGAGGCCCAGATTAACGCTATACGTGTGCATTCCAGCCGTCTCAGTAAGGGCTCCCCCACAATGCGGCCTAGATCTGGTTTCAATAAAGAGCAAGAATTGGGAGCCCCGTCTTAGTTTAGGCCTCTACTCCATTAACTTGTTTTTTCCTAGACGGCTGTTGTTTTTGATGTGTGAATCAACTCCCCTACCAGGCGGTCCGCGTCCAATGTTAATACCGTCCAATTATGTGGGACGGAATCTACCTCGGAATACGTCTACACACCATCTCACAACCTTTGGCAGGTCACCATTCTGGCTCTGTCAAGTACTCAAGCCCTTTCATACCTTAGAAGACTATCGGCATCAGTCCGGAAATGTCGGCACCACATCTGATGCGTCATCCCGACAGGTTAAACTTGGCATCTATGCTAGTACACTCTCCGCTCCGTCTAGTGGCGCCGCGCGTGAGATGAAGTGTGAGCGTCGAATAACTTTTTCGCACTTGGGTATACTTTACGCCGACGGAGCTTGTACCGTCGCCACGCGCGCCTATACACTCGGCGCGCCCCCCCCTAACGTGCGTCTCGTATGTGCCATGACACTCCCGTTTGATGGGGATTCATCGCTGGAACGAATTATTTTGGTCACTACGGTTCCTGATCGTAGTCGAAGAGTTTCATGCAAGAGACGCCTGTTCTGGCTCACCCCCACCCATATGCGATTTTGGGAACGGACGCACTACACTTATTTAGCATGGTCAGGCCTGCTTCCATGGTGCGAGTTAGGGTCCCTGACGTATTACCGAGTGAGAGAGGGCCTAGATCTGTTAAGATTTCGCAGCGAGATCCCTGTTAATAGTAGCCGTCGCCGAACCCAACGCAGCTTTATCCATGGAAGGTGGGTAGCCGCACAGCGACGATTACTGTCGTACCGGGACCTCTCACATTTCCTCGCTCTCCTCACGGTTTTCCACAAAGGGTTGTTACCGATAGATTCAGGGGCAGCACAAGACGTACGGACATGGCGACCCCTTCGTCTGGGGAGGACGCTTCCATTGAGTTGCGCGCGTATTCCAAGGACGCCTCGTATCAGTGAACGAAGATGCACGCGAGTGCTCGAACTACTTTATGAACTACAGTACACTCCTCACTGGGGTTTGACTTTACGGGCCCTACGATCACCAGGGTTGCCGTGTCTCCTTAGAGTTTCAACCGTACTCAATGAAATGACATGCGAGGCCCGGTCGTTCCTCCCCTTCCGGGTGGCCATGTTCTTCAATCTCGAGGGGCGTTCCCAGCTCTTGAGGGTTGCGTACCTCTGTACCCTGGCTACTAAGCCTGGCAATGGCAGTCCGGCCGTGTTAGATACTGACCCTTTTGTTATTACGTATCGGGACCCTCTAGTGCGCTGCAGCCGTCTTTCTTTGATGCCGACTATAATAGCCGGGTACTGCGAGGGGGCACGCAGGTCCTTACAATTCTCAATAATCGAACACTTGTCCCTGACAATCGCTCAGGTCGGAATCGTAGAACGCCTTATTGTCGTTCCACACGATTATGTGACCGTAAGGTGTATAGCTGGGAAAGTCACCTTATTTAACATACAACTGAAAATAGGTCCTAAAACAATACGTGTGCGTTTTTACGTTGTTCCTATGTCTGAGCACTATAGCCGAGTGACACGAAATCCTGTCTTCGTCCAGCACAGATGGGTAACAACCGATCGAAGCTCAAGTCACCCAAGTGGATCAGCAAGACCCTCTGTCGTAGGATTCGGTACATGGAGGCCGCGCGTAAAGTTCGCCATCCAAGCTTTCGACGGTGATACTCAACGTGTTGATTTGACTTTACCTGGCGCTACAGCTCCGTGTATTACGTTTTATGGGATATTTTCTGCCGCGTACGTCCGCTTAACCGCGAAGATTCGATATCGCACTACTTCACTAACTACGCGATTTTCAATGAAGAGCGTTCATACGAGGTGTAGAATTGTAGAGGGGGAAAAACGGATGGTGGTCGCATCTAGTCTAGGTAGCGACCCCGCCCCTACATCTCTACAGATTGGTCTTCATGCCCTCGTCGTCTGTGTCTGCGGGAGGTACGAGGGCCTGACTACCTCTGTGGCTGGGGCTGAAGGTAATTGGTCACAGGATTACCTCTTGGACAGGGCAACGCCAATCTGTACCACAATCAGTCCGACGACGTTGCGAGACGTAAGAGAGGTTCATACGCTGCATGTGAACCGTAACGCTGGGGCCGTGCAGGCGAGCCGCTTACTATTCTCAACGCGTGGCTTCCGAATACGTACGGTACTTGAGGCAAGAACACTTGATGTACTACTGGGAGGCACGTTCAAATTGGGTAAATGCCGAAGCGGTCCGGCTCTGCGCTCTAGTGGGCGTTGTCGTAAGGGACTTAGAGAACGTATCGGGAGCGGTTCGGCTCGCCCGGGTATCTCCGCTATCGCTCTTTTTCGAACACGTCACTTTGCCATACTAGGGTTCAGAGCTAGGGGATGTATGGCTTGTCCTCTAGCGGGGGGTCTGATTTGTTCTTGTGTAGCATTTGGTGTAGTGGAAAAATACCGGAATCCCACACGCAAATCGAAGGTGAGTATACGCCCCAGCTTCCTTTCCTGTTGTGGTTTGTACCGGCTCTCACATAACCAGAATCGTCTTACGCACGCAGAATCGGGCGTCGACACTACCGACTACCAAAGCGGGCTAAGCTGGCGGTTGTACCCGGGTGCTCGGTTCTTTAAGCATAAAATGTGTAACCGAATTGACACTGGCTTCCGTGTTATTAGGTGCCCGGATTTCAGGTCAAAAATGCGACGTAGGAAAAGTGAAATACCCCTCTTGCTTTCCCCCCACACCTCTGAATTAGTTTTTGTCTACATCAGGCCTGTACTCGGGTATCGTGTGTCGGTCAATCATTCTTTCAGACGGCGACGCGCGAAAAAGGTAGATGAGATCCCGATTGCCTTCACTCTCATAACCGTTGAAGGGCCGGAGTTTACAGTAGCGACTCCTTCACTGAGGGACGCTCGGGGTTGGAGTATCTTACGACTGGGTTACCGTGAAAAGTCTCGTTTCCCCAGCCTCACTCTGGGTACTTATGCTCGGGAGCCCCTGTGGCGGGGACTTGAATTTAATACAATCTCCCAGTTAAATGCTGTCCGAATAGGTTCAGGTGTCCACGCAACATGTGCATCGACTATGACATCAGCCCGCATTAGTTACGTGATCTTGTTGGTCCTGAATGGTTACCAAGGTAGGTCCAGGGGCGGACGCGCAGGGACAGCAATACCTCGAATCACCCGGGTTTCATTCCACGCGAGTGAATTATTGTCATTCTTCGTATGTACACGGGCTGAGGCCGATGCTAGATCTGGACGTAGATCGAAACAAGGGAAAACCTGCTCCCCACCGCGAAAACTTCGATACTCTCCTCCGGTCAGTAGGCACAACACCAGACGTGCTCCCCCCAACAGTTATATCCGGAATTTCAGCGTGAGAACACTAAAGGTAGCATCCTATTCTAGCAAAATGTGTCCTTCGTGTCACCTAGGGGCTTGGGTTCGCCCAGTGGCCTCAACTAGGAGTTCGTATGCTATGAATTTGACTTTTGGGGAGTTGAACCGATGTCCTATTGCCCCAAAAGCGCAGCCTCTGTCCGGGGATTCGGTTAGGTGCCAT'
p5
sS'human'
p6
S'AGACTGGAGCATCCGTCTATTTGGCGAAGTTTCGGCCGCGGATGCAGGAGGTCCTGTGATTTTAGCGCTGTTGCAGAGAATACGACGAATACGGGACGCGACCACATCTCAGGCCCGTTAAACAGTCGTCCGCCTGATCGGACAAAGATGGTTATGCTTTCGCTACGCGGCTCCTCCTGCGGCGGGCGCCTGTCGAGCCATGTGCCGGTTAGCACTGTCACGCATCGCTTGGTGCAGGGGTATAAGTTAGCACTGACCGGTGAGACTCCCTATCCTAAACCATTCCACCGACGTCCTGCTCTCCAGGTGCATGGACACCTTGGTTCGTTGATCACAGTGCAGGAAATACATTGTAACAATAAATCCGCCTCTGGTCGTTCCCAGGTACCGTGCTCTTGGGAGCGGACAGGTGGGGGGCTCTTCCCCTCAGGAATAGTGCGCGGGAATGCTGGCGCCCCTTTTTCTGGGGAATCGCGCCGGCTTGGGATTTACGAGCCCAATGACTCTGCCCACACTATTCTACTACGGCAACTAGTTCAACTTTTCTCACTGGGCATTTACGCGCCGCCTTCGGTGAGTTCCTACAGTTGTGGGGCCCGGTCTATCCAGCAGTTGTGTGATTCTCATCGTCCAGCCACTGTCACGCGTGTCAAACGTAAGAAAGGGGACGTTTTTAGGCGCCTTAACAGTTGCCAGATAATAGCGGAACGTTCTTCTTACCTAAACCCTCCTATGAAACATGCGGTCGGGAGTGATCGCCCGAGAGGAGAAGTTTACGATCTGACTCGGGAAATTGAAAGGTATACTGGCGCTCGAAGTCCCCGCTACACCGACAAGCCGTATAGATTATATGTAAACAGTGTAGAAGGCTACCAACGAACCCGGCTCCAATTTAGCTCAAGGGCGGACTTGAGCTGCAGAAAAAGGATAGCGAAACAGACCACTGTGAACTCGTTGAAAAAGAGACCATTCGGGCCGTGCCTAGAACCTAACTTCGATACCCAGTGGCCTAGGTTCGCCAGACAGGCAATTGAGTCTAACTTGCACGGGTTGGGGATCAGAACCGCACGACTTTCACCGGTAGTTATGGGCCGGCACCAGGTAGCACAGGGGTGCGTCTCCTTCCGGCACTGGTATGAACAACTTAGGGGTGTATGCGAAAAGGCACGCCCCAGGCGTTCTATACCTACTAGCGAAGGGCGACAGATCGGTTTCTTGTGTTGGGGTGCGGGTACCCTGGAGATTACACCCGGTGGTCAGGCTGAGCGGACCATTCGTCAGTTGCTATCAGCGTCTACGGCCTTCACTTATAACCAGTCAGAGCTTCTGCAAGGAAACGACTCTGCACTGAGGGATCCCAGTCTGAAGGGAATTGATGATGTAAGAGAGACGAACCCAGTACCGTCCCGAGAGTATGAACTTGACGCCTGGGGCGATGGGGGCTGTTCAGGGCGCAGTCTTCTTCTTATGCAAGCAACATTCCGCCGAACAAGGAGGCGTCCTTCAGGGTCCCCCTCGATCGCGGAGGAAGCGGTTTTCCTCCATCATGTTGGGCTGGGGCCCAACGGGAAGGTACATTTTGTGAACGCTAGGCGGAATCTAGCGCATTCAGTTACACCTGGGAGATTCATGCACGCGGGAGCCGCGCTGAATTGCAGACGGGGAGACGCGAAAGTACACCTGACAATTAGCTTCCGCCTGTTCCCCTGGTTAAATACAGTTCTAGACCCGTTCAAAGAAACAAACTCTCGTGGAGCCGCCGTTTCTTGGAGCGGAGACCGCCAGCGTGATGTCCGGTGGACGCGAGATAATCTGAGTGGAAGTAGTGAATCCAGCTATTCCCTCTTGTCAGGGGAAGCGGCTTCCAACATGGCTCAGACGGCATCCATCGGAAATAGTACACTCCGTCAGATCAGCAGAGAGCTAGATCGTCTATCTATGCGCAGGGTTATTTGGCGAAGGCGGGTTGTTAACTCGGTGTCTGGATCCAGCATTCAAGCCATCAAAAACGCGTTCTCTGGTCGATTGGTTTTTAAGCGCTTCCACAGTGAATCGACGGTTCGAAGTCCGAAATCGGAGAGAAGATGGATTTTCCGCACGTCGATCATACGTGTCACGGCGAGGCATCACAAGCATTGGTATACCAGCAGGCGGGAATTATACAAGCCCCATGAAAGGTCCGCAGCTACCAGAGCGTTGGTGGCATCCACATCAGCTGTCCCGGTTCCTTCCGTTATAAGGCATTTATTTCGACATTATGAAATGGGAGCCTCCTGTATTCGCCTCGGCGTGCATCACACCAAACCAATTAAAGTGGCTCATCACTTTAGGTTCAGGTCCGCCGCCGGTGCAATGCCGGGGTGCATCGTCTTGTCCCGCCCGCGCATGGGAAGTTCAACCCTCCTGATGTGCCTCGACCCGCTACTCATACAACGTGCTCTGCTGACACGTGCAGACTGCGATATGTCTCATGGCGCGAGCGATGTATGCGTTCGATTAACCGGAGAAGGCGTTATGTCAGTTTTATTTCTGCAGAAATTCAGCTTGTCAACTGTGCAAAAAACGCGAGGTCCAAAACTCTACCGTAGCTTGGCGGGCGACAGCTCATTTACCAAACTCATTACAATCATCTCGGACTCGTACGCGAGCTCTCAAAGTAATTCTCCTTCATTAGGAGGGATAAGCGACTTCGCTAACTCTTCTCCACCTTCCTTCCCCAGATTAGGACCTTACAGGAGTTGTAGCCGATCTGCACCCCTTAGTACTAACGGATTGGCACAAGTCCAGCCTCTTGCGGTACATGACAGTGACACCCTCATTAATAGCAAAGAAGTCCGAGCATCTCAGGGCCGCTGGATCGGTGGCCGACTAATTAGCGGCGAGTATGGAGGTGCTCCGTCATCGTATGCACGGAAATCCCCAGTTCCGGAATTTGATGATCAGTCCACGAAACCCTTGAAGGGGGTGAGGGCCCGTAGTCTCGCTAAGAATTCTCTAAATGTACAGATATTCTCGTGCATGTGGCGAGCGAACATAAGACCGTCCATTAAGCGGTGCGATCAGCTAAGTCCAGGGCTTTCCACGTCTGGATTAAAGTGGATTAAGCGACTTAAGAATCGGAGCCGTAGCGTCGGTAGGTTCTTCTTAGTCCGCGACTGTGCCAGGAGGATGCAGGGGACCAATGTGAACCTTCTAGAAGCTCCTCACACTGTCGCCGCCTGGGGCGGAACGTCGTTGCTAGTACAAGACCCTGTGTGCTCGGATTTTGATACTGGTGGGGAGAGCCCAAAGTCATGGTTTAACGCACTCTGGGGTTCGTTATTAATTAGCATAGTGCATGATAATGAACAAGGGCCTAGCTCAACCGCGCTGGATTTTTTGAACCGGACGCACAGGCAATTTATTCTATTTATGACGTACGACGCTACTCGATATGAATCACCAGGCACTTGTCTGGAGGTCCGTTTTACCACAGGTCTCTATGCTCTCGCCGCTCTCACCCAACTAATACGGAAAATGGAGAAGAACGGGCTTGTCCCACTACAGAAGGTAAATCGTTCATTGGTCGCTGTATCCCAAACTATATTTCTGGTGATCAGACCCGGGTTGACGAACCGCTACACAGCTCAGCTTCTACCACTTGAATTGTGGCTTTATGGACTGCATGGGCTTTGGTGTAAAGCGTCGCAGGGTCCTGGTAACCAGTATGTGAAATTCCCGCTAATGGACAGGTGGGAAACAGCACGAGCATTCCTTATCTTCTGCAACGCAGCCGCGCTTGTCGGCGAGCATTCGAGCCTGCTAACGGTAGGCACCAGACAATCGGAGCCTACTGCGTTATGTCACTTCGGGCAGCTGGTATGGCTCACTCATTCCGTTATAAGTCTGGTTTTTGATGTACTTTGGATAAGCAGGAAACGAGGGTCTTGCACCCGTCGTGATCCGAATTGCAACGTGTTTGGTGGACATTACAGTGTTGTGCACAGCGTTAGTGCATACAACATAAAATCGGTCTTATTGAATTTGAATTTCTCACTACTGGCCGTATTTCATGTTCCGCCCGGGTCTTCTGCCACCAGGCATATGTTTTACGTTTACGCTCCCGATCTGGCAGAACCGGTCTGGTTAGGAGTCCACTCTGGTGCGATGCGCTGCTGCGATCTGCTAACCAGTACGGATCCATCTACCGGTGTACAGGCCATTCCGGTAAGTAAGACTGCACCGGCGGACAGCTCTGAAATGACCGCTTTACGAACTCAACAGCATAATCGAGTACGGCGTATCAGAGGGATACTCTTGCTTCGATTCTCTCAAGACCGACGTGCCGGCCGGTACGTCCTTAAGGCTCGTTGGCCAGCACTACAGCGGGCGGGTGGGCCCACCTCAAGTTGGTCCGGTGTGGCTAATTTGATTATCCCCCTTTACCCAATTCCTACTTATGTGGGTGCTATGGGTAGCTATGAAGTACTCTTCACTAACCGAGGACGATGTCGAAAAGAAATTCTCAAATGCGCCATTGTAGCTCGTTACGGCAGTGGCTTGTCGGTCAACAGCACTGGGTTCCGTCCTGTCAGAGCGCATCTACCAGGGAGTATTATCCGTATTGAGACAGGCGACCGACGCGACAATACTCAGGAATTAGGATCTCCAGGAGCGACAGCCTCTCCCCACACCGAATACGGGGGTCATGGCTACCTCGTCATCGACCACCTTGCGAGTACTGTACTAGAGCCAGGAGAGTGCGGTTTGTTGCGTCTGCTTCTGACTGCGGGCCTCGGTTTACTGACTGAAGACGAGACGCATAATCTGCGGTTTGCGTGGTTAAAATCGGGTTGGTCCCCCTCGACAGAGCTCTTTCCAGTGTTGGCTCTATCAGGTATGCATTTTCGGCAGCTAGGATCCCTTCCGGTCTTAATAGATAATTGCCCCGGAATAAGTCATTTTCGTTGGAGTTCATCCAAGGAGGCCCCGGTCCCTTGGGATTATGCATCACTCTGGCATGTACGGACTTATCGCGTGTGGCGACTTGCATCTCTTTCCTCCTGGTGGCTGCGGCTTTCCGTCGGAAGGGTGACTGCATCGGCGACTGCACGATGCACGTCCCTTAGGGGTGCGCCCTACCGTTTCGACGGCTTAGAAGTACGGCTTGTGCCTCCAAGACGTCCGGCTCGATTGGTGCCACAGGTGGGTGTTATCTGGCCGACCACGGGTGGCTACACGGTAGAGGGTGACAAGTCTCGACTCCCACGCAATCTATGTATGTGGAACCGAACTAAACAAGACACGAAGCTTTCCTCGATTAAAGTCATATTACTTTCCGCCGCTGCCGCCCGTCCGAACGCCTTGGTTTCCGTATCGCTGGGGAAGTGGTGGTGTCGTGATCCTAATTCGTATAGATTTTGTGCTTATGCTGAACGTCAAATCTGCGCTGCATTTGACTACCGGCTCAGTATGTCCGGTGGCAAATGTCCGCGGCAGACCAACTCTCGGTGCGGAAGGACCGTTTTAACAATGATATTTCGGCTTATACTGATCCTCACGCTCGGAAAATGCACGATGTGTGCCTGCAACAAGCCGGACCGACCGTCGATGTTTCAGCTAACCCCGCACTTTCAAAATCTGTTGATATCATTCCCACGGTCCCGCCCATCAATGGGTAATCGCCCGAGCTTAAGCTGCTCGTCCCAAGCACCCGTTATGACTATCTGGGTCTCTTCGTTAGCAATATGTTTATTTTGCTTTGGCCAAGGTTCCGAATTCTATCCCCTGGCTTCGGCGGAAAAATCCCCGGACGATGCGTATAGCGCTCACAGAACATACACGAGCCGACTCTGTACGGTCCTCCTAATGAAAGTTCTTCGGCAATCTCCGCCACTTGTCTCGTGGTGGAACCTGGCTCAGATTACATGGGGGTGTAGTGGCTGGACTACGTGCAAGGCCCACGTAAAGGAAAAGTGGTACCTCCAAAATGGTGCGCTAGGGTTGCAGATAATTGACCCTACTCCTTTACTAATATACTCCCCGCGGCCCTTGCTAATCTGGAAAATGGCCGTGGGCCTGTATAAGTACAGTTCACAGGATCAAACCACCAGCGTTGCCTTCGGACTGTTTCTCTTGCCTGATCTTGAGGCGTACAACTTTTGCCCGGAGGCCTGTGGTCCGATTTCATATCCTATAACAATGGAGGATACACGTACCCGCGATACTCAGCTAGCGCCACGAGTGCAGTCTTACCAGACCTACCACCAACGAGGCCCGATCAGCCTCATCACGGGTATTTATATATTCTCCAATACTTGTTATGACTTTGTGTGCCATATATTGTACACTTCGTCGTCCGGTTCAGGGAGTCCCGTACGTGTTCATCACTCTGCTCTAGACTCGCGGTACCGAGCATGTCTTGATAGCAACACCTCTGAACTATCCCTGCCATCTACCTGCTCAAGGACGCAGGGTGCCCCTGCACGCCATAATAACGTTCGCGGAATTGGCATGGCGCCTGGATACTGCGTAGTTACTCCACTGTGGCTAGTAACAAGTTTCCGGCCTCCAAGGGAAGGTGCCCGGATAGGGGAAGAATATGGCCTATTTACGTTGATATTAGACCTCTGGTTGATGCCGCGTGCGTTGATACGTTCCAACAGGATCATTGACTTCTTTCTGGCAACAGCAATGTTCACAACCCGAGAACAAATCCCAAAAGGTAAATGCAAACTCACCACTCCATGGTGTTCTGACCATAGTTATTCAAGACCGCCTAATTGCCAAAGGCACACTCAGTCAATGTTACATGAAACTCCAGTTTTTGTGCGAAGGGATACAGGTATCACAATGGCGGAATACCGGACCGCCGAGCACGTTGGACCCGCGTACCCCTGGCTAAGCCCAGCTAACTGTTCCCCACCGTCCGCAGCGCATGGCCCAGAGGCACACGGGCTCAGACGCTCAGACCTGAGCTGCACCGGCGTACTCCGGCGTCTCATATACAAAATTGTAAATGTATGGCAGGTCCGTGTTTCAAAAAGTCGTAACAGTAGCGCAAGTACAATGAGGGGGTCACGCAAATGTCGCGCCCTCGGCAGTAAATCACAGGCCGTAACGTCCTTGGGCAGTATTTACCGCCTAGAACTTCGTTCATTAGTGCAACATTGGCCCACCCCTCTAAGAATAGGTGAGCGCTCCGCGCGTTTACCTAATTGGATTGTACGGATAGTGAGGACTTCGCGGAAAAATAAACAAATAACTCTTAATAAACTTCCCCCGCTCCGTGCCTTAAGTGCCGAAAACCACAAAACGCTTAGAGCGAGACCAAATCGACAACGTACCGCACAAGATGGGAGGACAATCAGCCCTGGCGGTCGTCGACAAGGGTTTCAACTTACGTGTGGGTGGAGACTTTATATTCCATCCGGATACTCACTTTCTTTGATCTGGCGGTGTAAGACTCAAGTCCTCACTCGCCGTACACGGTCCTTAGAAGCTGCGTCATGGCCGCGGATAGAAACGGCAGAATCAGTTTCGGCGCCCATGGGTCCGCTAACCCCCTCCATTCTAAAAGCCGAAGGGGGATGGAGGGCCATACTCCCTTACGGTTCTCATTCTGAACACGGCGTCGGGGGCCGCCTCTCGAAAGAAGTTTTGACGCGGACAAGGGGCGAGTCAGGGCGGCAATGTGCCAACGACAGTCGGGAAGCCTACGGTAATTCAGACCTACGGGATCACATAGCTTTCGACTCTATAGAAAATGGTTGCAACCCCAGGAAGACACGAGCCCCGTCAAAGCAGCTTAATGGGCAGAACACCTGGTTCGGTAGGGAGATATATCCGGGTAACTTAGGCTTTCGGACACACGTGCTAATAAAAGAAAGCCGACTGGATTGGCAGGCGGCCACGCAGCTGCTGGCAGATCTTTTATTAATGAATAATAGTGAAGGGTTAGTTCCTGGAATCTCTCCCATGTGGGCCCATAACGTACGTTGCCTACGACAAGCGATGCAGAGTCGAGTGGCTTATTGCCTCCAGTGGTATTTACAACGTCGGCTGATCCTTGGGGGGGATTCTTTTTATTTAGTATGCTTTACTCGAGCGCTGAACCTCCTAAGCTGTCCAGTGGATTCAAGGCAAGTGATCTGTGGTGTGCTCCTTGAAGGGTGCCACTTCCCTCCTGCGCCACCTTGGCCAGATACAAGTGACCGCAGTTTATACTATTGCCTGGACGCGGTAGAATCATGGCGCCGATTGACAAAGCGGCCTGCATTGCCGAGCAGCAAAGTCCATCCGTCCCACATGGAATCTCTTCGGACACGGGGTCCTAAAGGGACGATAATCAGTCTGGAACCTGGGACAAGACCTACGTCCGGTCCGGTGGTTCCCGTTTTCCACCGATGGACCAATGGCTCTCTCTTTTCTTGTGAAAGCTTACGATGGCACCGAAGAATCCCCCGTGCGAATGGAAAGGCTTACTCGGTAGGAAACCCTACTCAACGCAAAACCGACCTGTTGATATGGTTTGTAGACGAGGCGTATCCATTGTTGAGGTTTAGTTACATCGGCTGGGGGAATAAAGAACGCCAACTCGGTTTCGAACTTCTCACCATCCCAATGTTGCTGGGAGGCGGGATCTCGCGCTCCCACAGCCGTAGCCTCCGGTTCGCGGTCGAAAGCTCCAAAATCAAAGGCAGCAGTCAAACGACGCATGCCAAGCTTGCTCCCCAGGATCATAGTGTCGAGCCACGGTCCTTAACTCACCGGTTAGTGCCGAAATTCAATCGGCGACTGTGCGCAGATGGTAACCGGCGGCTTGCTGTCGAAAACCAACAGCCCGGCGAAGTCACAACATATTGGCAACTCGGGTGGCTGTACACCTTACTGTTTCTGATGAATTACATGTCGGTCGCGGGCAGACGAGCTCCTCGCGCTAGCTGGGTCTCTAGTCAGAGCATCGGCTGTAGCTTGCTGTTCGTCCGTCGATCTCTACAGTCCCTTAAAGGCGTATGTATTCCGAGTCAATACTCTGCCAATGCAAGACTAGGAGTTATGGTTCCTCTGCCGGAACAGAATTTAGTTGATGCTTCCTTAGCCCCCCATCGACTATGGCCTCCCGGAAGTACGGAATCGATGGAATCTGTTCTGGAGAATCAAGTGAGTGACGTTTCGACGTTGCATGGACTCGTCCTCTCACTTCTTTGGCGACAACCACTCCAACGAATTCACCCTGCATCTACGGACAAGACGCTGACTAAGGTATACGCGGTTCAATGGCGGGGAAGTATCCCGATAGTGATCCAAGGATATGAGCTGACAACGGCTGCTCGACGCCCACCATCGGATAATGGTAAATCTACCTTACCGTTGAAAGCAAGGCTGCGTTACGGTGATTTTGTCCCCTACGGCCGGATCCGTTTAGAGTATGTCCAGTGCCGTAACAGGGGCGTACTCCCTGTAGGGGGCCTGGAACGCAGTTTGCCCATCCGTACACCTCAAGGGCGAGTTGGACTAATAAGCATCGGCATCCTGACGTTTCCCAAGTACGCAGTTAAGTATCCCGCATCTATGTTAGAACCTTTTGGGAGTTCGATTCGGGCGGCCGGGATCACACGCGTCGTTCACGAAAAGATCAGTTACCCTATGACGGAATCGTATACGAGTTTGCACCGAGGTCGCTCTGGGGTCGGGGTCTGGCGCTTTTTATCAATTCACCCATCACGGCTATCTCGTGTATTAGCCAACCTGACGCAGAGCTTAAATTACTCGCAGGGGGCTAGCGTACCATGCGCAGCAATCCTGTCTGGGCAGCCTGCTCGGAGTTTCCCACATGTACTCTTCCTCTTCCATAATGATCGACGATCGAAAGTATCCCGTCCTTTACTGTTACGTAGCCATAATCCTAGGTTACAGGTGTCCGGTGACGCTATGTTACAGCTCCGCCACTTCGCCACCCTTACTTATGAAATCAAGCGTGCATACCTCACTTCCGGTTCCATGCGTACACTTCCTCGTGTCGCCTTTAAGGGATTGAACAGAACATATCCAACCACTCTCAACACACCCCCAGAGAGATCGGGTTGCTTGGAATTTCTCTGTCGAGTAGGCTTCCGGAAGCCGTCGTGCCGCAACTCCGTTCATCATAAATCTTCTTGTACCCGTCTGTCAGGTCCAGGCGCTGCCGTCAGGTCAATTGATTCGAATTCTCGGAACGGCTCATTTTTGCGGGCATACCTTTCACTACTATTTGTAGGGCAGAACAATAGCAACGAAGCGTGTGCATCTATCAGTCGAGACCGAAACACAAATATTGGGCTCGACGGATTCTGTGTCCTCCCCGGTCCTGGATCTCTCGAAACGCGCTGCGGAGAACGCACAAGACCACACTCAAAGGACTATAAACGTCCGCTTTTCTGCTGTTCGAGTCGACGCTACAGTGCTAGAAACGGCGGGGCAACTCGGCATTACACCGTGGGTTATTCGAGACTAACGTCGTTTTATGTAGGGGTGTGGGGAATCATCTACCGCTCGTGGATTCGAGTCCGTACATTCAATTCCAGGGGCAGCGTAGATCCCGAATGTTGTGGATTGCCAGATTCATTTTCGCTGGCCTGGGATGGGTCAATGCATTTAACGCATCTACCGCTGATTGTGCCTGGGCTTGTTGCCGTATCATACCGGCGTGTGCCGTCTTCGCGTGTGAGAAGCGCTTCGAGACGCGATATTGAGTGGGGCCCGTTGACTACTGGACTATACGGTCTATCGCACAATTATCCACGGATGCTTTCTAACGAATCTTTTAGACTCGATAAAAGTCACTTTATTCAACACGACACGTCTTATTGCTGGCCCACTAGAGGGTTTTATAGGCACGAGTTCGACCGAAAGTCTTATCAGGGATATGAGGATTTGGCTGCGCGCCGAGTGTTAGTAGCCTTCAAGTCGTTTTACCCCTTGAGCAAAAGTACCTGGACCGCATACATGGTCTCTTACAGCGAAAACTGGTTAACAAGGAATAGCCATCCGGGAACCAAACATACATATAGTGTCTCGTCCATCTCTATGACTTCTTCATCTGAAACCCACGAAGCTGTAATACAGCAGCCCATAACCGCTTACGCAGCGCAGAGGCCTACTGGAAGAGCGGGTAGCAGCGTGAACCATGAATTCTTTACAAAACCCACCTGCGACCGTATCAGTGCAGCCTCAGCACGTGTGGCGACTGCTTTTGGCCGCCGTATCGATACCTTGTTATTCGCGAATCAACAATCAACCCTTGCCCCTGGTCAGGACAGATTACGGGGGACCTCGACACGCGCCCGGATAAGTCTTACGTATCTCGCGTCCTCAAATCAACTGGATGGCGGCAGGCTCCAGACCACAGTAACCGCGTACTGTCCGCGTACACCGAAGAAGCCCGGGGGAGGTCACTATGTTAACTCTTGTGTGATGCCGGAAATACACTATCTCCAAGGATTACAGTTTACCCATACCCGAGTCACAGGTCCAATAAAGTCTTACTCTAGCGTGCACTCCACGTCACGCCAAGAATACTTCGTTTCTACCGCGAGGCTTATCCGGCTTTCCCAGGAGCGCCTTGCAGCCCCGATACCCTTAGTCTTTTTCGTAAGAAGCTTCCCTGCTTGTAGAATACAAGTCACACCAGACTCCCTCCGGCTGACTGTTTTGTTAGAACGTCAGCACATGCTCCCATTCGTCCTTGCACGCCTCTTCTTCCTGATGGGACCATGCCCCATCCTGCGTGTTTGTCGAAAAGCGGGAACCACATCCACCCAAGGGGCATGCCGATCCACACACGCTCAAATCACGAGCCAGAGAAGGATACAAGAGCCTCAGGATAAATTCGTAGCCCATTTCGCCGGGACCTTCAGATTTATGCTCGACCGGTGTCCGTTGCAACGTCGCCCTATGCCAGCAGGTTTAGTTATCTTCGTTCTAAATGTACTAACTGCCAAGCGAGTTAATTGCCTTACCAGTCCTCCTCTGCAGGAAGGCTTCATTCTTATCTGTGCAGGCCGTTGCGAAAGTCTAGGGCCCGGTATAAACATGTGTTGCCTACCCAGGAGAACACACAAATATCTCCGGCTCCGTTACCGTAATGTATTATTAAAAACTGCTGGAGTGAAGAGTAGAGTTATAAATATCTCGCATGCGTGTCACTGGAACCGTGACTGTCTAACGTTCGCTAGCCGAATACAGCCCGAAGCTCTCCTCATGTTCCGTCGACAGGCCTTCAAGATCCATGGTTTTTGTATTAAGCCAGAATTTTGCAGCTGGTCCTATGGGGTCGCTCGTGGTCAGACATTGGTTCGGCATACCTCGGCACACTCCGTGTCTGGCACCGCTCTAAGTATTTGTGGACCGATCAAGAATATAAAGCACTTGCCATGGCTAAGACTTGGAGGCATAGGATATCAGGAGAGAAAAAAGAAGGGACATTGTACGATGGCCAGGACCGAGTTATGCAGCTCACGGATGAGTATTAGGTCAAACAAGCCAGCGTTCGGCGTAACCATGACGGCCCCGATCTATGACGTGATCAGACGACTCAATGAGGCCCTACCCAACAAACCGCTTGATTTTTATAAAAAGGAACCTATCCATCCCACAGAGGCGGGCATGGTCGTGAGTCCCCTACCATTAGATTCAGTCGTTTACACGACGATGGTAGACACGTTTATTATCTATATTAGCGCCACCGCCGTACCACACATCGCAGTAGGGCAAGCAAAGCGCTACCCTTATGAGAGGGGTGCAGGGAGTGTGCGTGGCGAAAATCATTGGGATGCTCTTTCTCGGATCACTTTTCCGCAGTACCAAAGATATCGCTTAGTTGTACAGATCCGTATCGAGACAGTAAGCACGTTCGATCACATCCCCAATCAGTTTATTGTGGGTCTCGATGCACACTTCATTACGGCGACTCAGCGCTCGGTTGACGTCGTAATTTTGGATGGTGAGTATATGCGCCTGCTTGATTCCAATTGCGCCCGAGTTCACTCTTTTTTGCGCCCCCTAAAGGCAGCTACGCCCAAGCAGGACGATTCGGATATTGCAACCGCGCGAATGTCTCGTTCTATATGCAGCCCCACCCTCGTTATCATCAATGAAGCGTTGCAAGAAGGTTCTAACAAGCAGGACAAGAAGAATTTGCGTAGCGCCATGGTAGGTATGTTCGTGCCCCGTTTAACTAAATACGGTCTGGGAAGTGCATATTCAACCAGCATGTCCGTACGCAGCATACTTTTTTATCGCGAACTTACGGAAGTCAACAGGATCCTAGTCCGTTCACATAGCCAAGTGGGACTGTGGCGACAAAGTTTTTGTGACAAGTTAGTTAATATGGCGCGGTCACAGTGTCACACCAGGAGCAACATAAAAGCGCACAGTATAGATTGCCCCGATAGACCAAGAGCGAAAGGATTCTGGCACACCGCGCTTATGAGAAAAGTAGCCTCATGTTGCCCATTCATAATTAGGTCCGGCAGACCAAGTAATGTCGCTCAGACGAAGCAATTTCCTCCATGCCACTTTTACTGCATTGTATCGGCAAAGGGAGCCACAGCCACGGTAAATTATCTACAGTTCGGGGACTGGGTTTTGAGTAATTTGACACGAAGGGTTGACGTAGCCGACAAAGCATCTGCTAGATCGCTCGGGAGCATACATGGTGTACCTGAAAGAAGTTTCAGTTCTAAAGCATCCACTTCTCGCATATGCGTTCCACTCAACCCGTGTGGATTTAGCACTCGGTTGCAAAGGGAGACTTGCCCTGATAGCTTAAGGTCGCTCCCATCCGCTCGAAAGGCCGGTTACTTCTTTAGGTTCCTAGTGGCAACGCAATTTAACATACAAACGTTCCCTTGCGGTAGGTACTCATATTTCGGTCAAACTTTAAACTATTTAACGGCGCGCCAGGACCTCGGACCAAGCGTCCAACGATTAATCATTGCGTTATTGCGTCCTGTAAACTCGACCTGTGCAGGTGGCCGGTTCACTGTAAGCTTAGATGCGCCACACCTCCTATGTTGTCCAGGGCTGAATGGCGCCCACTTGCTTGATGCCTGTCCTTCGCCTTCCCAATTTCCGCCGAGACGGTGCCGTCAGGAGCCGGCTGTTCTGTCGCTTGATCGGGACCCGGCTAGATTGGCCGCAGGGGCGAATGAACTATCCTACACGCCGCGCTTAACTGCAGCTAGCCAAACCAATAAGTGGGAACCCGGTTATACCTTCATGGTAAAATCGCATCTAGAGGCAAAGGGTCGAGCAATCATTGTACACGAGCCTGCTTGGTGCAGACGAGCATATATCCTGTCACCCGTATCCGCTAAACTGTTTTATCGGCCGACGAAGATCGTAAAGATTCCCCTTGAACCCAGGGGTGCAGCTACGAACTCGTGCTCGTTTCGGGTCGTGCTGCCCACATGGGAGTGGGGCGAACAATCTCAGCAGGATCGCCAACCTGCTCCCGGCTATCTTGTACCTCCCGTGTCGTGCATGGTGCAAATTCAAGTTTTCGTCCGAAATAGCCGCTGCAGTAATGCCGACGCTCCTTCAAGCCATCGAGTCATCACTCAAGGGGCACCGACCACTCGTAGGATCTTCCTTCCGTGCACTATGGCCCTGTCCCGCCCACCTATTTTCGTGATTTGGGGGCAACACTTAATGTCGATCTACCAAAAGACCCGGGCTCGTCATAAAAGCTTCCCAGCACTTATGATGGACTATGCACTCCTGCGCCAGCCACCAGTCGTCGCGTCGCGCACGGTATCTCTTGCACCTTTTATCTGGGCAAGTAGGGTACACGTCATTCGGAAAAAGCACGGGTCCCACAGACTTGCAAACGGATTCAAGCTCAAACAGAATTTGACTCGTGCAACTCGCTTGTCCAACGCCGTACCTAATCCTGGCAAGAAAGCATCTTCGACCTCGCTCCCAGTGACTAGCCAATGTTATATTTCGACACGGCAACCCATCAGTCCAGAACCGCGGGAAGACCAGGCAGGGTCAGGTACGTCCCAGACGCCGTTTCATATTGGGGTGTTGACTGACACAGAAGGAGCGAACCTGCCTCGGTTGTCGACCAACCGGTGGAACGCCCTTGTTAGAAGCCACCGGTGCTTACAGGATACCATAGATATAACGTCCTGGTGTGAGGGTACTGCTCCTCCTAACACGGAGTCGGAAAGTATCCATCAAACTTGCTCGCTGCTAACTTTTTACACGCCTTCTCCCCAAAGATTCTCGAGCTCCCACAGCGAGTACCTAGGGTCCGTAAGTACTTCAGTACTGGCGCCGATTATGCGTTCGTCTGCAATGGGTGCTTATCCGGTACTTACCGTGATTAGACATATCTTTCTTGTGGCCCGTAAACCCGCCATGTCTGTGGGGGCCAGCTCGTATAGCTACAGTCTTATGCCATGTAACACCATCTCTCATCTACGACCCGTATACGGGCAATTCCAACATAGATGGAACCTATGGGCGAATCGAGGGGTAGGAGTAGCTCCGATGCGACTAAACCTTCGAGTCTCGTTGGGCGCAGTTAAATCTATTGTGGACGGTGGATTGTGCCATATGCATGTACTTAAGGCCTCGGAGGGATCAGCAAGGAGACGAGAATGGCACCAATGCACAGTCGTGGTTCCTCCCGTTCGGTACCGATTCCCTAAAATACCTGATACACCTTCGGCGGCACATCCCGCCGGCAAAAACGGAGAATCTATTTTACTTGGTCGACTAAGAACGGGTTCGATCGCACCAAGGTGCCTAAATTGTCAGGATCTCTCGATCGACCACATTAAATCACTCGTACGCTACTTTGATTATCTAATTCGCAATACCTGGAATCAGAGCCGAAGGTTGAGGCGATGCGTTGGCAGACATAGACGTATGATTCACGGGCCCAGGTGCCTTTTCCAAGGTGGAAGGTCCTCGTCCTGCGCTGTAATTTTGCAGCGACATCGAGCCACCTCTGTTGCTAGGTCGCGCACACCAGTCGGGAGGAAGTCGATGCTCTTTCCGTCGGACCCTATAATTCCCGATATCTATGGCCAACCTCACAGAACGACGCCCGATACAGAAAATCCAAGGTACAGTCTGGGAGCAATATGCCGTAGCAAAGCTGAGGGAATTCCATGCTCCCGGCCTGGCGATTTTATTTCTGGCTTTACAGTTGGGGTGATCGATGTCCTCATCAGTCGCGTTGAAAGTAATCGTGCCATTTCGATCGCATTGACGGGTGCTTTCTTATCCTCGCTAATGACAGGAGCTCTATCAATTTCGCTAGGTCTTTTTGCCCAACGACCTGTAAGGTCGCGGCTCGACTTTGGTGCCGTAAGTCTTGATCCAATGTTACTAGTTATAACCATATGCACGACAGAGCGGCGATTCGCAGCGCAGAGTAGCTGGTTGTTCGAAGTGCTGGAGACGTACTGTGCCGACAACCTAGCAGAACGCATATGGGGATCAGCATTTGAAGAGAGGCGTGCAACAAACGCTATATGGAGAAGTTCTATGAGATACTATGAGTCAGACATTCAAGTCTTCAACCGGAACACTATAATCGGACACACGCCCTCGATGTTCGTTACAGTCGTTGAACTAGATACGAGGGCTAGGCACTCTTTCAGGAGGGGGCAGTCTTGGGAAATACAGTTTCGCAATTCTCGATCAGCGCTCAATGTGGTTGCGTTGATTGGTGTCCGTGCAGTCTTAGATGTCTGCGGTGTCACCTATATCCTTGACAAAACTCCCCGTTACACCTCAGCGTTAACCGTTCGGCGTCTATATTCACGCTATCAGCTACGCGCTAGTAGACCTGGTAACAGTATAACCTCGCGCTGCGGATCATGTTGCGACACGCCTGAAAATATTGCCAGAAGAACGCCGTTCCAAGCGAGGGTTACTGCGACGACCCGATCGGACGGGCGTTCAAACCATCTAATGGCTATTTCCTCGAACAGTGTTACAGTCCGTCGCTGCCTGGAGTGGATCTGCCTTATCTTCTTTGGACGGATAATAGTTGCCTCCAGCTTTCATCCTCCGCTTTCAGTACGTCGATTGATGGTTCGCAGTTATACTCAGTACCCTGATTTGATTATCCTAGAGGTGCATAATTTGCGGTTTACAGTATCTCTCACCCTTCGCACCATCACGTCTTCTGCTGTCGACAAGACTGATGTCGTGCGTTGGCTAAATATCTATCACAGTTATAAAGTCTTCTTATGTAGACGAGTAATAGATCTGACTCTGTTTATTGCCAAGCTTATGGTTATGGCATTCTTAACTACACGTAGGGTGAAGCAAGAAACGAGGAGGTGTTTGAAAGAAGCCCACAAGATAACAATATTCATCCTATTGGCTTCTAATCCTGCTAGATTCGTCGGTCGAGCAGGAATCCATGAACGACACCCGTTAAAGTTGAGCCGGACGCTATCGGTTTGCGCAATAAGAAATCACATACCACGCGAAGGGATAGAAGAGTTCGACCCCCCGCTGAGCGGCTGGGAAAGCAGACGTTTCGGGTGCCCAGATATGAGACTTGGTCCTTGGCTATACCAGGCCCTACCGGAGGGTCCGTCACAATTGAGGCGCCGTACTGGGCCACAAGTACCCAAGTGCCTTACTCGTGAGGTGTTGTGTGACTCGGTAATCCGGACATACAGTAAATGCGCGCCGTTGTCAGGGGGGACCGCATGCACGCAATTCAGATGCTCATCTGGTAGTACGTGGTGGATTATGGCGCCCCGCTCTACCGGCCCGGATAAGTTTCCTAGGGTCGCGATTCCTCCGAGTATCGACTGTAAAGTTAGTTTCGAGCGCCGCACGTGTCCGTCCGACGCTTCGAACTTTCCATCAACAGTACAGCATCATCCACATTATTACCCCCGGAATGTTTGCGCTCTCACTTTCCCGCGACGCTGGGACCTGAAAGGTTCTTCTTCTGGAAAGCGGAGCCCATTTATGTTCGAGACTATTGCTAGTTGTACCTCCTGGGTGTTCCCCAAATGTGTACACGCACCGGATACTGGCACTGCTGAAGGCTGCAGCCGCCGTCGAGCGGGCACACGCTGTTGTATCGTAAGTTTCCTCGCCTCCTGCTTGGGCACGGTTACATCGCCACAAAACACATTCCATTCTGGCGATACGTCGCCGCAAGGACGCAGGAAATCGATTTCTTTATCGATGACAGCAACGACACCTTTTGATGGGAACTTTATCATCACCACTATTATCCTGGCGATATTATTTTGTCCCGTGCGTATCGCTGGGTTACCGGCAGACTCGACAGACAAAACGGGACCCCTTTTCAAGGTTCTGACACTCCCTTCTATTGTGTTCTATAGAATGAGGACACGATTCACCGTCACATTGGTTCACACTGGTGTGCATCTTGGGGCCGCCAGAGTCATTATACCTAGTCCTTCCGATCCTGATAGGGATGGGCTCGCGCTGGCCTCACAACTCGTGCAGGCGTGGCTAGGGCCCGCAAGGGGACCTGATTTTAGTTCCTCTATAAGGCTTCGCGGGAGAACCGTAAGAGAACAAATTGTTAACTACTGGGTGGCGAGTCGCTCGGGGAAATTTTTTCAAGATTATTTGGTCTCATTTTGGGTAATTTGTTTCAAACAACACATCTCTATAAAACCTTCCGTGATTATTCTAAACACGCACTCAGGACAGAAGCTAATCTGCTCTGACCACCGCGATCTGCCTCTCCCAGATAGTCCTACAGTCACTCTAGCGCAAAACTTTAGGCCAGCCTGGCACTCCGAGAGAAAAGCATGGCGCGCGGATTGGGAGGCAAGGCACCATAGACTTATTATGCAGCATGTCTCCGGTTCGACAAACATAGCGTTGCGTGGGTATGTGTATTCACACGCAAGCCCATGGTACCACAGCGTAGTCTCTACTATTTTGGTCACTCATGATATCGTAATAGGCGCCACTGGTATTGCGGTAGACCTGCCATTGCCGCTTATCTCGTCGGCCCCAACGGAACCAATAATCGGGATAACGTGGACCAAAAGCTCGTGGCATTCCTGGTCGGATAGTCGACTGGTGCTATTAAGAAGCAGGGAATACCCCGACGTTACGCTTACGGAACAGAAACAAGAGACACAGAAACGCAGGGCTCTTCCGCTTGCGAGATCAGTTTATCTTATATTGGCGACCTCCTCGCATCGCAGCACGCAGGTAAGGTCCCACAAGTTCCTCTTCATAGTACGGCCGCAAGATATTAGGACTTACTGTGTGACCTATAGTGCTAATGAGTTGGTTGGTGCACGGCATTGCTATGCGTGCGTCAAGATATCCAGCTGTAATGGGCTACCCTGCTTCGGGTGGCAGAAAGAACGCTCCGTTCATAGTGAAGACGTCTGCTCACCAATGGCAATAATATTTGCTAGCGCCAAAGACCAATCTGCGCTTTTACCCATCCCAGGTGACAACCTCATTTCAGGGCCCAGCTCGCCGCACCTAATAATCCAATCTTATAAGAGAGGTACCCCCATTAGCCGTAACCATAGCAATTTTTCACTTTATGCAGCACTAGGGGGCATGCGCGGTCATGATTGCCGTATTCGCACTTCTATATGGCAACGGCCATGTGGCTCGCGTGAAATACATGCACGAAGCTTGGTGCTAACCCCCTGTGTTAACTTCGGTCTCGTAGCACCGCCAAAACATCCACGCAGGGAGAGCCAGCCAGCCTCCGGGAGGACCAGGTTCAGCAATCGTTACCGCTGGCGTGGAGGGCTAGATCGCGTGACTAGCCCACGTCTAGCCCCTGCGCGACAGAGCCCCCCTAGGCTGCCAACTTTGTGCCCCTGTGATTGCAACCGCGACACAGATACCCCTGACCTAGGACACTTCACCCTAGCCTTCGCTAGTGATAGGTTTCCCTCAGGGTCTTACGCCCGACTTAGTACAGCGTTCGTCCTCAGCGCGGGGCGTTTACGTTATTCCACCCAGCAGTGGCGGCCGAGAGGTCATGAGCGTAACGCCACTGACCATACTTCGAAACCTCTGAACGTCGAATTGTACATCTCACTCGGGTCCTTCCACCTTAACCCTATCAACGCAGAGGTTCAGAGAAGGAAAGAACGTGCGCTAAAATATTTCCCTCTGGATTCAACTCTACCGAATTCAGTGTGGGTCAATAAAGATTATCGTCCGAATATGAACCCGCGAATCGCACATATCGTACAGCAGGAACCCTTCCTAAAAACGTTTGAGTATCGAGGACATCACCTGGTTGGTATCGCGTCGCTTCCTTACGCACTAAAGGGGACTCACTCGAGCCATAACCCTTTCTATCCCCGCTGCCTGAGATCTCAACTCTCCTCTAACCGGGTACGCACGACGTCTGGGAGATCATGGGCAAGTGCTGGAATTAAATCAATACTCTCTGTCCGGGGCCCATTTGACTTTGACGTTGAGCATGTCTTGTTGGCCGAATCGAGTAATACCTCTCTGGGTCCAGGTTTGATTAACGTCCCGAGCGAGAAAAACCATTCGGATACAACGCATGTCACTTTCCATAAGGCGCGGGCTATTCCGAGAAGTTGTTTCGAAGAGACGAACACACCCATTCGAGCCCGAGCTAACATTACGTTCTCTTCCGACCGATTAGCAGACTTACGGGAAGCTGTAGCAGCCGACAAGTGCATACAGGGCCCGCGCCGCCTGAACTCAGATCCGATTTATGGAAACCATTCGTACGAATGCGGCTCCGTCAGACCAGGGATCACAAGGTCACTCGTGCACTATAATTGTCAATTCCAGCTAGGTCTGGGATCCGGGGTCGTCAGCAAGGAGTTTGTCGTATCAGAGACTATCGCCCATATACCCCCTCACGCAGCAACGTCTGATCAGCGCGTCACCGCACTTGATGGCCGTTCACGAGATCGTCATTTCCGTATCAACACTAAGCCGATATCGCGATATGGTTCGGTGCCGCAAGCTTCCCCGACTCTTCAGGATGCAACACTCTATCTGGCATACCAGCAAAATTGGGGCGCAACGGCCATTACTGATAAGGCCGGTTGCATTTATATAGACATGAGCTACCGCGCTGCTAGCTCACTCCCCGGGATAACTCGGACTACTCCTTGGAGCTGTTCAAAAGATCTTGTCGGGACTACATCATGGGTCGCCATGCGTCTATTTTCAGAGTGCGGGACTGTAGCTGCCGAAGGCCAGAAGGATACCACCCCGTCTCCCCCTTTATGTAGGGCTTGCGAACACCACGCCACCTCGTACAAGCTAGCCTGGGCGCGTCAGGAGTGCATCCATGACATTCACGGTTCGGCCGCGCGATGTATCATCAGTAAAAGTTGGAGACTATATATTAAATTTTTTAGGCATGGAAATGCAACGCCCGGAAAAACCACACTGAGAACGGGGTGGATAATAGAAAAAAGTAGACCGCCACCGCACGTCACCTCACACTTTATGCTGAGTGGGTTATTGAGCACGATTATGACAGAAGGTATCGTGGAATTGGCGCTTAAGCATCGGCCGGGGTCGCCTTTCCCTACTCGAACCCCTATACTCTTCTCGTGTATACTCACTATATGGGACTGCCGCGATGTTTACTGGCAGGTTGTCGGTGAAATGAGCGCACTCTTAATGGGACTTCGAGTGCAGCGACATCTTCAAAACCCCAAGTTCGGGAGATACAGACTCAGCAAGCGAGTCGTTCTTGCGCATCCTGGCAAGGATTCTTGCCTCAAAGTCCGTTGGGGACGATCAATCGGATCTCCTGTATGGTCTTCATTGCATAGGAAAAACTTTAGGAGACAATTACCGCCGGGCAGTTCAATTGAAACGGCTTATGCCGGACTCCGCTATACGATTAGTAGGTACCTACCATTCAATAAATGGGTTATACTGAACAGATTTGAGAGATCACGGCGCCGCCCGTCGGAGCTGCAACAGACGTTTCTCTGGCACGGTGCCCAGACGATTCAATTTAGAGGTTGTTCCCGGCCTCTGGTTAGGAGGGTCACCTTAATCTGGGCGTGCTCAGTTCTCGCGTGCTTGCCGAAACTACTATCGGGTTTCATACGCTACTCGATTAAGCCGTATTTATATCGAGTCAGGCAATACGAGTATTCACACCGTAGTGCCACAGCGAAGTCGTTGGAAGGGCCATTCAGACTAGACTCCATGGTCTGCCTATCTGCTGCACAACAAGTCCAATTAAGTGGGTCTCTGAAAGAAGTTAGAAGATGGGTGCGGGCCTTGCTGGCCAAGGTTGGTAAGTCGCCCGAACTGTTTCCCAGTGATTTGTACCCCATTCAACTATTGTGTCAACAACTAATAACACGTGCATCTCGCGACACGACCAAATGGGCGCTCTACTGGTTCCCACCGTGCGGCGGTCAGAGTCTGGCGCTGAATGCAATCTCTGCGGGGTCTCAACACCGACTAATACGACAATTGCTGAGACGGAGTTCTTGCAGGGTGGCTGGCAGACCTGCCTTGCCGCTCTTGCAACCTCAAAATAAGGACCTCGCAAAAGGTCCGCGGGGCGTGCCACTTAGCTCGGGCGATTGCGAGTTTGCTGATCATCGCAGGCATATCGTCGGCGCGCCATTCCTTTCTAGTAAGGCACCGCATACTTCATGTCCTGAACCTCCCACTGGGTCGGGCCGAGACTTCCAAGGAACGACGTGCAGATGGGCGACTGTACTTAGTTTCGATGCATGCACACATGACATGGACCGCATGGCCAGACCAATCTCCCGCAAGTGGCATTTTGAAGCGCTTTATCAAATTACGGGTTTCGGACCAGGACTTCCTGTTCATCAACATGCCTGCTCCGACCGTAGGAACGGGTTAGAGTACACTTTCCCTTGGGGGAAATCTTATCCTCAGAAGATAACGCGCGTTGTTATCCCTTCTGTTCGTTTTCGAGTCGATCTAAAGCCGGCCCCGTGGGCGACGAATGGATCTTTGTGGCGCCCATCCTACGTTCTAGCGTGGGTGGGTGTAACTACATTCCCCGCCAGGCATGCCTACGCTCTTGCAGAGTCGATGTGGCTCGTGATATCGCTGACCCGACCTCATACTCCGATATCACTAACGTTTGGTAGGAGCCACTACATAACCCTTGTGGATCCTATAGGCGGGTATACGCGGTTATGGTTGTACAAGGACCCAGCTTCACCGAACGAGGTTGGGCTAATTCTCCACGACGACGCCCTTGAGACGAGGCTGATGTCTTGCACCGGACTTGCATCTGTTGGCGGATTGGTGACGTGGTATGTGGCATCGACATTTCAACCTCAATGGTTACCTAATCCTAATGACCGCCCAACGGGGATAAGTAAAAGAAAATTTTTCGTTTTACCGCCTCACTACCCTGGTTACCCGGGTGAGTCAGGCTGCGGCATACATCAACGGGAAGGATGTATTGTACTCTGTTCCACTGCGATCCCGAAGTACCAATGTGGGTCAAAGAGGCATTCGGAGCAGCTCGGTGGAACTGACAATGGCGTAATCATGTTTGGGCACAGAGCATTGTCCATTCAGAAGAGTTTGCTATCTCCCAAGTTAGGCTCTAGAAGTAACCACGGTATATATTATCACTCGAGAAACCAGTCCTTCGCAAGATGTGACAGAATGAGCGTCATCGAGCGAGGATACTTCCTTACAGTTCCTTTCCTGCCACAGACGAGGCGCTATTCTGAGCAGACCAGTAGCAGCAAGCGGTGTTCGAATTACGGTGCTTTATTTTTATTCCGGGGTCCTTTTACGAGGCTCAGTTCTAAAGTTGCCTTCAAAACTCACTCACGATTCGTTGCAGACCTAGCATCTATTTGCCAGACCGGAATAACAATTCCTGCTCCTGGAACTTGCATGCAATTCGTCCCCCAAGAGGGGCGTGGAGTGTCACCTTCCGGTGGAGGGGCAACATTCCTGTCGACGCGTTGCTCTCCCTTGGCTACTGAAGGCTCAATATCGTCCGACGCTGGAAGCCCATCAGACTGTACACCACGAGCAGTAGATAAACTTTATGTGGTGATATCACAAGCTGGTACGCGCCTCGAGGGGTTATACAACAACTACGGCGAGGCTCTCAACTCCTGGATTAAACGATGTGTACCATATCGCGGAAATACGCACCGTGTTGGGTGCTTGTCCGTCCACAAAGTTCTCCGTCGAGGTTATGTGAACCGTTGCCAGTTGCAGGTTGTCGGTGAAGTCTTTAGGGTCCATGAGCCAACGACAGCGCGCATTCTTAAGCTTATCAGTCAGACTGAGTATTATAGCGTTGGGTTCCCAATCCCCTGGCATTGTGTACTTCTCGCGCCTGAATTTGCGATTCTTCCGCCAGAGTTGCTTCGTCATCCCTTCTCTCCTTTCCCACCGGCCGACGACGGCGCCACTTACGTCTTGGAAGACCTCCCTAAACTTACTTCCTTTGCCGTGGTAAAGCCTTGGAACCAGCCTACGCCCTACTACAATGGAAGAGAGGTAGACCCTCATATTGCGTTCTCTTTGCCTCAACTCGAATATATGCACACCCATAGTAACACAGCGACGTCCTGGTGTAAAACGAGTGGGGCATGGGTGCGTCGTCCCAAACGACCGACTCATATCAGATCCGATCCCTTGACTTTGCCACTTCGCGCAAAGCACACATTAGGAAGTCTGGTCGCGTGCTGCCCAGCACACATATGCGCCTCTTGCCTTAACCGGATATCTGCGACGAGCTCGCAAACATGGAGACGTCAGGATGTGTCGATAGGTGGGGGAATACGTGAAGTGAGATGGGACTATTGGTCTTCTAAAGTGCGAGCTCTATCTGGGTTACGTGTAGTGTCATTTTGGTCGTCATGGATATCCCCGCTAGGTGGCGTATCGGGTCCTGTGTCATCTCCTCCAAGAACCCCGATGGGGAACGGGGACTTTGCACATGCATTAATACGTAACCATCCTATGATAGGCTCGTGGGATGTCTTCTGCAGGAGGAACACTTCGGTGCCGTTGGGGCGTCGATCAACATATGATGTTACACAGTACCCATATAACGCAACAGTTGCAAAGCATTGCGCCGTATTAACAGATCTTGTTAAAGCTATATCCTCGTTTTGTTCGAGTACGCTAGAGACAAAGAGATCCGGGAATACTGAAGAGAATGGCACCCAGAGAAAAAAACGGGGTTCTGATTTGAAAATCATTTGTTTAGTAATTACGGCAGTACGCCTAGTCACGCTTCTCTTTCCCGTTGGACTCGGCCCACAATACAGTCCGGCAGTAATCATCTATACTTTACCTAAGGCATGCCGAGTTGATGCGTTACAGACCGTCTTGATTACTGGACCTAGCACGGCCCTCTGGCAGGGACTGAACTCAATTCCGACGTATGTTACTTTCCAAAGGTACAGTAACAAACGAGCTGGCATCGTTACCAAATATGTCATTAATATAGGGAGAAACAAGGGTCTTTTCCGCGGGACCAATTTAACTACCCTGGAGCAGGTCACTTTCAATATACAGGATCCTGGAAAGGACGTCCTGTCTTACGCCGAAAGTCGAGGTCAAAGACGACGCATTCGAGGATTCCCGACGATATGGCATCTTGCACTGATCCGCCGTAGCCGGGTAGTACTTACGAAATTGGGTACTCGCCTAGAACTTGCTGCCCTCAAAGCGCAAAAGAAGGCGCGAAGATCGTCGGTGTTTAGTCCAATGTTATATCTCCCTCCACCTTCACTCAGCCGGTCAACGTATGTACATGCACAGCGGGTGATTATGCTCCACGGAAAATCATGCCGGAGTAGATGTAATACTGCAGGGGCAGGCTCGGCGACCGCGTATCTTACACAATCCCCGAAGCTTGCAAGCGAGCGAACTATTGGATACACGGGGCTGGCTTTTATGGTTCCAGTACGTCGGTTATTTATAGACGGCTGGCTATGTGGGTACGGATCCCCAGTCATGTGTACCGAGAGGCGTCATTGCCCCAATCTATTTTTATTGGCGCGGAAGGTTCAGCGGAACTGTCGGGAGCGATTTGCTGGCTCTTGCATGATGACGAGCCGTCGACGTTGCCTGTTCTATCCCGACATGTATAGGAGGAAGTATCGAATGCTTACCTCGCGAGACTGTAACCAGAAGCTTCTCACGGACCGCCGAATCTCACGATCATTTGTCGCACTGTGTGTCAAGCCGTCGGGCTGTGAAATTGCGGGGGTGCGTTTCTTGAACGTCTGCCTCGCGTTCTGCCGACCGGGAGTACCCCCTAGAGCCAATTGTGGGGATCCGGGATACCTGCGTTATACGCATGCTATCTGTCGTTACCAGAGGCCCAGATTAACTCTATACGTGTGCATTCCAGCCGTCTCAGTAAGGGCTCCCCCACAATGCGGCCTAGATCTGGTTTCAATAAAGAGCAAGAATTGGGAGCCCCGTCTTAGTTTAGGCCTCTACTCCATTAACTTGTTTTTTCCTAGACGGCTGTTGTTTTTGATGTGTGAATCAACTCCCCTCCCAGGCCGTCCGCGTCCAATGTTAATACCGTCAAATTATGTGGGACGGAATCTACCTCGGAATACGTCTACACAACATCTCACAACCTTTGGCAGGTCACCATTCTGGCTCTGTCAAGTACTCAAGCCCTTTCATACCTTAGAAGACTATCGGCATCAGTCCGGAAATGTCGGCACCACATCTGATGCGTCATCCCGACAGGTTAAACTTGGCATCTATGCTAGTACACTCTCCGCTCCGACTAGTGGCGCCGCGCTTGAGATGAAGTGTGAGCGTCGAATAACTTTTTCGCACTTGGGTATACTTTACGCCGACGGAGCTTGTACCGTCGCCACGCGCGCCTATACACTCGGCGCGCCCCCCCCTAACGTGCGTCTCGTATGTGCCATGACACTCCCGTTTGATGGGGATTCATCGCTGGACCGAATCATTTTGGTCACTACGGTTCCTGATCGTAGTCGAAGAGTTTCATGCAAGAGACGCCTGTTCTGGCTCACCCCCACCCATATGCGATTTTGGGGACGGACGCACTACACTTATTTAGCATGGTCAGGCCTGCTTCCATGGTGCGAGTTAGGGTCCCTGACGTATTACCGAGTGAGAGAGGGCCTAGATCTGTTAAGATTTCGCAGCGAGATCCCTGTTAATAGTAGCCGTCGCCGAACCCAACGCAGCATTATCCATGGAAGGTGGGTAGCCGCACAGCGACGATTACTGTCGTACCGGGACCTCTCACATTTCCTCGCTCTCCTCACGGTTTTCCACAAAGGGTTGTTACCGATAGATTCAGGGGCAGCACAAGACGTACGGACATGGCGACCCCTTCGTCTGGGGAGGACGCTTCCATTGAGTTGCGCGCGTATTCCAAGGACGCCTCGTATAAGTGAACGAAGACGCACGCGAGTGCTCGAACTACTTTATGAACTTCAGTACACTCCTCACTGGGGTTTGACTTTACGGGCCCTACGATCACCAGGGTTGCCGTGTCTCCTTAGAGTTTCAACCGTACTCAATGAAATGACATGCGAGGCCCGGTCGTTCCTCCCCTTCCGGGTGGCCATGTTCTTCAATCTCGAGGGGCGTTCCCAGCTCTTGAGGGTTGCGTACCTCTGTACCCTGGCTACTAAGCCTGGCAATGGCAGTCCGGCCGTGTTAGATACTTACCCTTTTGTTTTTACGTATCGGGACCCACTAGTGCGCTGCAGCCGTCTTTCTTTGATGCCGACTACAATAGCCGGGTACTGCGAGGGGGCACGCAGTTCCTTACAATTCTCAATAATCGAACACTTGTCCCTGACAATCGCTCAGGTCGGAATCGTAGAACGCCTTATTGTCGTTCCACACCATTATGTGACCGTAAGGTGTATAGCTGGGAAAGTCACCTTATTTAACATACAACTGAAAATAGGTCCTAAAACAATACGTGTGCGTTTTTACGTTGTTCCTATGTCTGAGCACTATAGCCGAGTGACACGAAATCCTGTCTTCGTCCTGCACAGATGGGTAACAACCGATCGAAGCTCAAGTCACCCAAGTGGATCAGCAAGACCCTCGGTCGTAGGATTCGGTACATGGAGGCCGCGCGTAAAGTTCGCCATCCAAGCTTTCGACGGTGATACTCAACGTGTTGATTTGACTTTACCTGGCGCTACAGCTCCGTGTAGTACGTTTTATGGGATATTTTCTGCCGCGTACGTCCGCTTAACCGCGAAGATTCGATATCGCACTACTTCACTAACTACGCGATTTTCAATGAAGAGCGTTCATACGAGGTGTAGAATTGTAGAGGGGGAAAAACGGATGGTGGTCGCATCTAGTCTAGGTAGCGACCCCGCCCCTACATCTCTACAAATTGGTCTTCATGCCCTCGTCGTCTGTGTCTGCGGGAGGTACGAGGGCCTGACTACCTCTGTGGCTGGGGCTGAAGGTAATTGGTCACAGGATTACCTCGTGGACTGGGCAACGCCAATCTGTACCACAATCAGTCCGACGACGTTGCGAGACGTAAGAGAAGTTCATACGCTGCATGTGAACCGTAACGCTGGGGCCGTGCAGGCGAGCCGCTTACTATTCTCAACGCGTGGCTTCCGAATACGTACGGTACTTGAGGCAAGAACACTTGATGTACTACTGGGAGGCACGTTCAAATTGGGTAAATGCCGAAGCGGTCCGGCTCTGCGCTCTAGTGGGCGTTGTCGTAAGGGACTTAGAGAACGTATCGGGAGCGGTTCGGCTCGCCCGGGTATCTCCGCTATCGCTCTTTTTCGAACACGTCACTTTGCCATACTAGGGTTCAGAGCTAGGGGATGTATGGCTTGTCCTATAGCGGGGGGTCTGATTTGTTCTTGTGTAGCATTTGGTGTAGTGGAAAAATACCGGAATCCCACACGCAAATCGAAGGTGAGTATACGCCCCAGCTTCCTTTCCTGTTGTGGTTTGTACCGGCTCTCACATAACCAGAATCGTCTTACGCACGCAGAATCGGGCGTCGACACTACCGACTACCAAAGCGGACTAAGCTGGCGGTTGTACCCGGGTGCTCGGTTCTTTAATCATAAATGGTGTAACCGAATTGACACTGGCTTCCGTGTTATTAGGTGCCCGGATTTCAGGTCAAAAATGCGACGTAGGAAAAGTGAAATACCCCTCTTGCTTTCCCCCCACACCTCTGAATTAGTTTTTGTCTACATCAGGCCTGTACTCGGGTATCGTGTGTCGGTCAATCATTCTTTCAGACGGCGACGCGCGAAAAAGGTAGCTGAGATCCCGATTGCCTTCTCTCTCATAACCGTTGAAGGGTCGGAGTTTACAGTAGCGACTCCTTCACTGAGGGACGCTCGGGGTTGGAGTATCTTACGACTGGGTTACCGTGAAAAGTCTCGTTTCCCCAGTCTCACTCTGGGTACTTATGCTCGGGAGCCCCTGTGGCGGGGACTTGAATTTAATACAATCTCCCAGTTAAATGCTGTCCGAATAGGTTCAGGTGTCCACGCAACATGTGCATCGACTATGACATCAGCCCGCATTAGTTACGTGATCCTGTTGGTCCTGAATGGTTACCAAGGTAGGTCCAGGGGCGGACGCGCAGGGTCAGCAATACCTCGAATCACCCGGGTTTCATTCCACGCGAGTGAATTATTGTCTTTCTTCGTATGTACACGGGCTGAGGCCGATGCTAGATCTGGACGTAGATCGAAACAAGGGAAATCCTGCTCCCCACCGCGAAAACTTCGATACTCTCCTCCGGTCAGTAGGCACAACACCAGACGTGCTCCCCCCAACAGTTATATCCGTAATTTCAGCGTGAGAACACTAACGGTAGCATCCTATTCTAGCAAAATGTGTCCTGCGTGTCACCTAGGGGCTTGGGTTCGCCCAGTGGCCTCAACTAGGAGTTCGTATGCAATGAATTTGACTTTTGGGGAGTTGAACCGATGTCCTATTGCCCCAAAAGCGCAGCCTCTGTCCGGGGATTCGGTTAGGTGCCAT'
p7
sS'chimp'
p8
S'AGACTGGAGCATCCGTCTATTTGGCGAAGTTTCGGCCGCGGATGTAGGAGGTCCTGTGATTTTAGCGCTGTTGCAGAGAATACGACGAATACGGGACGCGACCACATCTCAGGCCCGTTAAACAGTCGTCCGCCTGATCGGACAAAGATGGTTATGCTTTCGCTACGCGGCTCCTCCTGCGTCGGGCGCCTGTCGAGCCATGTGCCGGTTAGCACTGTCACGCATCGCTTGGTGCAGGGGTATAAGTTAGCACTGACCGGTGAGACTCCCTATCGTAAACCATTCCACCGACGTCCTGCTCTCCAGGTGCATGGACACCTTGGTTCGTTGATCACAGTGCAGGAAATACATTGTAACAATAAATCCGCCTCTGGTCGTTCACTGGTACCGTGCTCTTGGGAGCGGACAGGTGGGGGGCTCTTCCCCTCAGGAATAGTGCGCGGGAATGCTGGCGCCCCTTTTTCTGGGGAATCGCGCCGGCTTGGGATTTACGAGCCCAATGACTCTGCCCACACTATTCTACTACGGCAACTAGTTCAGCTTTTCTCACTGGGCATTTACGCGCCGCCTTCGGTGAGTTCCTACAGTTGTGTGCCCCGGTCTATCCAGCAGTTGTGTGATTCTCATCGTCCAGCCACTGTCACGCGTGTCAAACGTAAGAAAGGGGACGTTTTTAGGCGCCTTAACAGTTGCCAGGTAATAGCGGAACGTTCTTCTTACCTAAACCCTCCTATGAAACATGCGGTCGGGAGTGATCGCCCGAGAGGAGAAGTTTACGATCTGACTCGGGAAATTGAAAGGTATACTGGCGCTCGAAGTCCCCGCTACACCGACAAGCCGTATAGATTATATGTAAACAGTGTAGAAGGCTACCAACGAACCCGGCTCCAATTTAGCTCAAGGGCGGACTTGAGCTGCAGAAAAAGGATAGCGAAACAGACCACTGTGAACTCGTTGAAAAAGAGCCCATTCGGGCCGTGCCTAGAACCTAACTTCGATACCCAGTGGCCTAGGTTCGCCAGACAGGCAATTGAGTCTAACTTGCACGGGTTGGGGATCAGAACCGCACGACTTTCACCGGTAGTTATGGGCCGGCACCAGGTAGCACAGGGGTGCGTCTCCTTCCGGCACTGGTATGAACAACTTAGGGGTGTATGCGAAAAGGCACGCCCCAGGCGTTCTATACCTACTAGCGAAGGGCGACAGATCGGTTTCTTGTGTTGGGGTGCGGGTACCCTGGAGATTACACCCGGTGGTCAGGCTGAGCGGACCATTCGTCAGTTGCTATCAGCGTCTACGGCCTTCACTTATAACCAGTCAGAGCTTCTGCAAGGAAACGACTCTGCACTGAGGGATCCCAGTCTGAAGGGAATTGATGATGTAAGAGAGACGAACCCAGTACCGTCCCGAGAGTATGAACTTGACGCCTGGGGCGATGGGGGCTGTTCAGGGAGCAGTCTTCTTCTTATGCAAGCAACATTCCGCCGAACAAGGAGGCGTCCTTCAGGGTCCCCCTCGATCGCGGAGGAAGCGGTTTTCCTCCATCATGTTGGGCTGGGGCCCAACGGGAAGGTACATTTTGTGAACGCTAGGCGGAATCTAGAGCATTCAGTTACACCTGGGAGATTCATGCACGCGGGAGCCGCGCTGAATTGCAGACGGGGAGACGCGAAAGTACACCTGACAATTAGCTTCCGCCTGTTCCCCTGGTTAAATACAGTTCTAGACCCGTTCAAAGAAACAAACTCTCGTGGAGCCGCCGTTTCTTGGAGCGGAGACCGCCAGCGTGATGTCCGGTGGACGCGAGATAATCTGAGTGGAAGTAGTGAATCCAGCTATTCCCTCTTGTCAGGGGAAGCGGCTTCCAACATGGCTCAGACGGCATCCATCGGAAATAGTACACTCCGTCAGATCAGCAGAGAGCTAGATCGTCTATCTATGCGCAGGGTTATTTGGCGAAGGCGGGTTGTTAACTCGGTGTCTGGATCCAGCATTCAAGCCATCAAAAACGCGTTCTCTGGTCGATTGGTTTTTAAGCGCTTCCACAGTGAATCGACGGTTCGAAGTCCGAAATCGGAGAGAAGATGGATTTTCCGCACGTCGATCATATGTGTCACGGCGAGGCATCACAAGCATTGGTATACCAGCAGGCGGGAATTATACAAGCCCCATGAAAGGTCCGCAGCTACCAGAGCGTTGGTGGCATCCACATCAGCTGTCCCGGTTCCTTCCGTTATAAGGCATTTATTTCGACATTATGAAATGGGAGCCTCCTGTATTCGCCTCGGCGTGCATCACACCAAACCAATTAAAGTGGCTCATCACTTTAGGTTCAGGTCCGCCGCCGGTGCAATGCCGGGGTGCATCGTCTTGTCCCGCCCGCGCATGGGAAGTTCAACCCTCCTGATGTGCCTCGACCCGCTACTCATACAACGTGCTCTGCTGACACGTGCAGACTGCGATATGTCTCATGGCGCGAGCGATGTATGCGTTCGATTAACCGGAGAAGGCGTTATGTCAGTTTTATTTCTGCAGAAATTCAGCTTGTCAACTGTGCAAAAAACGCGAGGTCCAAAACTCTACCGTAGCTTGGCGGGCGACAGCTCATTTACCAAACTCATTACAATCATCTCGGACTCGTACGCGAACTCTCAAAGTAATTCTCCTTCATTAGGAGGGATAAGCGACTTCGCTAACTCTTCTCCACCTTCCTTCCCCAGATTAGGACCTTACAGGAGTTGTAGCCGATCTGCACCCCTTAGTACTAACGGATTGGCACAAGTCCAGCCTCTTGCGGTACATGACAGTGACACCCTCATTAATAGCAAAGAAGTCCGAGCATCTCAGGGCCGCTGGATCGGTGGCCGACTAATTAGCGGCGAGTATGGAGGTGCTCCGTCATCGTATGCACGGAAATCCCCAGTTCCGGAATTTGATGATCAGTCCACGAAACCCTTGAAGGGGGTGAGGGCCCGTAGTCTCGCTAAGAATTCTCTAAATGTACAGATATTCTCGTGCATGTTGCGAGCGAACATAAGACCGTCCATTAAGCGGTGCGATCAGCTAAGTGCAGGGCTTTCCACGTCTGGATTAAAGTGGATTAAGCGACTTAAGAATCGGAGTCGTAGCGTCGGTAGGTTCTTCTTAGTCCGCGACTGTGCCAGGAGGATGCAGGGGACCAATGTGAACCTTCTAGAAGCTCCTCACACTGTCGACGCCTCGGGCGGAACGGCGTTGCTAGTACGAGACCCTGTGTGCTCGGATTTTGATACTGGTGGGGAGAGCCCAAAGTCATGGTTTAACGCACTCTGGGGTTCGTTATTAATTAGCATAGTGCATGATAATGAACAAGGGCCTAGCTCAACCGCGCTGGATTTTTTGAACCGGACGCACAGGCAATTTATTCTATTTATGACGTACGACGCTACTCGATATGAATCACCAGGCACTTGTCTGGAGGTCCGTTTTACCACAGGTCTCTATGCTCTCGCCGCTCTCACCCAACTAATACGGAAAATGGAGAAGAACGGGCTTGTCCCACTACAGAAGGTAAATCGTTCATTGGTCGCTGTATCCCAAACTATATTGCTGGTGATCAGACCCGGGTTGACGAACCGCTACACAGCTCAGCTTCTACCACTTGAATTGTGGCTTTATGGACTGCATGGGCTTTGGTGTAAAGCGTCGAAGGGTCCTGGTAACCAGTATGTGAAATTCCCGCTAATGGACAGGTGGGAAACAGCACGAGCATTCCTTATCTTCTGCAACGCAGCCGCGCTTGTCGGCGAGCATTCGAGCCTGCTAACGGTAGGCACCAGACAATCGGAGCCTACTGCGTTATGTCACTTCGGGCAGCTGGTATGGCTCACTCATTCCGTTATAAGTCTGGTTTTTGATGTACTTTGGATAAGCAGGAAACGAGGGTCTTGCACCCGTCGTGATCCGAATTGCAACGTGTTTGGTGGACATTACAGTGTTGTGCACAGCGTTAGTGCATACAACATAAAATCGGTCTTATTGAATTTGAATTTCTCACTACTGGCCGTATTTCATGTTCCGCCCGGGTCTTCTGCCACCAGGCATATGTTTTACGTTTACGCTCCCGATCTGGCAGAACCGGTCTGGTTAGGAGTCCACTCTGGTGCGATGCGCTGCTGCGATCTGCTAACCAGTCCGGATCCATCTACCGGTGTACAGGCCATTCCGGTAAGTAAGACTGCACCGGCGGACAGCTCTGAAATGATCGCTTTACGAACTCAACAGCATAATCGAGTACGGCGTATCAGAGAGATACTCTTGCTTCGATTCTCTCAAGACCGACGTGCCGGCCGGTACGTCCTTAAGGCTCGTTGGCCAGAACTACAGCGGGCGGGTGGGCCCACCTCAAGTTGGTCCGGTGTGGCTAATTTGATTATCCCCCTTTATCCAATTCCTACTTATGTGGGTGCTATGGGTAGCTATGAAGTACTCTTCACTAACCGAGGACGATGTCGAAAAGAAATTCTCAAATGCGCCATTGTAGCTCGTTACGGCAGTCGCTTGTCGGTCAACAGCACTGGGTTCCGTCCTGTCAGAGCGCATCTACCAGGGAGTATTATACGTATTGAGACAGGCGACCGACGCGACAATACTCAGGAATTAGGATCTCCAGGAGCGACAGCCTCTCCCCACACCGAATACGGGGGTCATGGCTACCTCGTCATCGACCACCTTGCGAGTACTGTACTAGAGCCAGGAGAGTGCGGTTTGTTGCGTCTGCTTCTGATTGCGGGCCTCGGTTTACTGACTGAAGACGAGACGCATAATCTGCGGTTTGCGTGGTTAAAATCGGGTTGGTCCCCCTCGACAGAGCTCTTTCCAGTGTTGGCTCTATCAGGTATGCATTTTCGGCAGCTAGGATCCCTTCCGGTCTTAATAGATAGTTGCCCCGGAATAAGTCATTTTCGTTGGGGTTCATCCAAGGAGGCCCCGGTCCCTTGGGATTATGCATCACTCTGGCACGTACGGACTTATCGCGTGTGGCGACTTGCATCTCTTTCCTCCTGGTGGCTGCGGCTTTCCGTCGGAAGGGTGACTGCATCGGCGACTGCACGATGCACGTCCCTTAGGGGTGCGCCCGACCGTTTCGACGGCTTAGAAGTACGGCTTGTGCCTCCAAGACGTCCGGCTCGATTGGTGCCACAGGTGGGTGTTTTCTGGCCGACCACGGGTGGCTACACGGTAGAGGGTGACAAGTCTCGACTCCCACGCAATCTATGTATGTGGAACCGAACTAAACAAGACACGAAGCTTTCCTCGATTAAAGTCATATTACTTTCCGCCGCTGCCGCCCGTCCGAACGCCTTGGTTTCCGTATCGCTGGGGAAGTGGTGGTGTCGTGATCCTAATTCGTATAGATTTTGTGCTTATGCTGAACGTAAAATCTGCGCTGCATTTGACTACCGGCTCAGTATGTCCGGTGGCAAATGTCAGCGGCAGACCAACTCTCGGTGCGGAAGGACCGTTTTAACAATGATATTTCGGCTTATACTGATCCTCACGCTCGGAAAATGCACGATGTGTGCCTGCAACAAGCCGGACCGACCGTCGATGTTTCAGCTAACCCCGCACTTTCAAAATCTGTTGATATCATTCCCACGGTCCCGCCCATCAATGGGTAATCGCCCGAGCTTAAGCTGCTCGTGCCAAGCACCCGTTATGACTCTCTGGGTCTCTTCGTTAGCAATATGTTTATTTTGCTTTGGCCAAGGTTCCGAATTCTATCCCCTGGCTTCGGCGGAAAAATCCCCGGAAGATGCGTATAGCGCTCACAGAACATACACGAGCCGACTCTGTACGGTCCTACTAATGAAAGTTCTTCGGCAATCTCCGCCACTTGTCTCGTGGTGGTACCTGGCTCAGATTACATGGGGGTGTAGTGGCTGGACTACGTGCAAGGCCCACGTAAAGGAAAAGTGGTACCTCCAAAATGGTGCGCTAGGGTTGCAGATAATTGACCCTACTCCTTTACTAATATACTCCCCGCGGCCCTTGCTAATCTGGAAAATGGCCGTGGGCCTGTATAAGTACAGTTCACAGGATCAAACCACCAGCGTTGACTTCGGACTGTTTCTCTTGCCTGATCTTGAGGCGTACAACTTTTGCCCGGAGGCCTGTGGTCCGATTTCATATCCTATAACAATGGAGGACACACGTACCCGCGATACTCAGCTAGCGCCACGAGTGCAGTCTTACCAGACCTACCACCAACGAGGCCCGATCAGCCTCATCACGGGTATTTATATATTCTCCAATACTTGTTATGACTTTGTGTGCCATATATTGTACACTTCGTCGTCCGGTTCAGGGAGTCCCGTACGTGTTCATCACTCTGCTCTAGACTCGCGGTACCGAGCATGTCTTGATAGCAACACCTCTCAACTATCCCTGCCACCTACCTGCTCAAGGACGCAGGGTGACCCTGCACGCCATAATAACGTTCGCGGAATTGGCATGGCGCCTGGATACTGCGTAGTTACTCCACTGTGGCTAGTAACAAGTTTCCGGCCTCCAAGGGAAGGTGCCCGGATAGGGGAAGAATATGGCCTATTTACGTTGATATTAGACCTCTGGTTGATGCCGCGTGCGTTGATACGTTCCAACAGGATCATTGACTTCTTTCTGGCAACAGCAATGTTCACAACCCGAGAACAAATCCCAAAAGGTAAATGCAAACTCACCACTCCATGGTGTTCTGACCATAGTTATTCAAGACCGCCTAATTGCCAAAGGCACACTCAGTCAATGTTACATGAAACTCCAGTTTGTGTGCGAAGGGATACAGGTATCACAATGGCGGAATACCGGACCGCCGAGCACGTTGGACCCGCGTACCCCTGGCTAAGCCCAGCTAACTGTTCCCCACCGTCCGCAGCGCATGGCCCAGAGGCACACGGGCTCAGACGCTCAGACCTGAGCTGCACCGGCGTACTCCGGCGTCTCATATACAAAATTATAAATGTATGGCAGGTCCGTGTTTCAAAAAGTCGTAACAGTAGCGCAAGTACAATGAGGGGGTCACGCAAATGTCGCGCCCTCTGCAGTAAATCACAGGCCGTAACGTCCCTGGGCAGTATTTACCGCCTAGAACTTCGTTCATTAGTGCAACATTGGCCCACCCCTCTAAGAATAGGTGAGCGCTCCGCGCGTTTACCTAATTGGATTGTACGGATAGTGAGGACTTCGCGGAAAAATAAACAAATAACTCTTAATAAACTTCCCCCGCTCCGTGCCTTAAGTGCCGAAAACCACAAAACGCTTAGAGCGAGACCAAATCGACAACGTACCGCACAAGATGGGAGGACAATCAGCCCTGGCGGTCGTCGACAAGGGTTTCAACTTACGTGTGGGCGGAGACTTTATATTCCATCCGGATACTCACTTTCTTTGATCTGGCGGTGTAAGACTCAAGTCCTCACTCGCCGTACACGGTCCTTAGAAGCTGCGTCATGGCCGCGGATAGAAACGGCAGAATCAGTTTCGGCGCCCATGGGTCCGCTAACCCCCTCCATTCTAAAAGCCGAAGGGGGATGGAGGGCCATACTCCCTTACAGTTCTCATTCTGAACACGGCGTCGGGGGCCGCCTCTCGAAAGAAGTTTTGACGCGGACAAGGGGCGAGTCAGGGCGGCAATGTGCCAACGACAGTCGGGAAGCCTACGGTAATTCAGACCTACGGGATCACATAGCTTTCGACTCTATAGAAAATGGTTGCAACCCCAGGAAGACACGAGCCCCGTCAAAGCAGCTTAATGGGCAGAACACCTGGTTCGGTAGGGAGATATATCCGGGTAACTTAGGCTTTCGGACACACGTGCTAATAAAAGAAAGCCGACTGGATTGGCAGGCGGCCACGCAGCTGCTGGCAGATCTTTTATTAATGAATAATAGTGAAGGGTTAGTTCCTGGAATCTCTCCCATGTGGGCCCATAACGTACGTTGCCTACGACAAGCGATGCAGAGTCGAGTGGCTTATTGCCTCCAGTGGTATTTACAACGTCGGCTGATCCTTGGGGGGGATTCTTTTTATTTAGTATGCTTTACTCGAGCGCTGAACCTCCTAAGCTGTCCAGTGGATTCAAGGCAAGTGCTCTGTGGTGTGCTCCTTGAAGGGTGCCACTTCCCGCCTGCGCCACCTTGGCCAGATACAAGTGACCGCAGTTTATACTATTGCCTGGACGCGGTAGAATCATGGCGCCGATTGACAAAGCGGCCTGCATTGCCGAGCAGCAAAGTCCATCCGTCCCACATGGAATCTCTTCGGACACGGGGTCCTAAAGGGACGATAATCAGTCTGGAACCTGGGACAAGACCTACGTCCGGTCCGGTGGTTCGCGTTTTCCACCGATGGACCAATGGCTCTCTCTTTTCTTGTGAAAGCTTACGATGGCACCGAAGAATCCCCCGTGCGAATGGAAAGGCATACCCGGTAGGAAACCCTACTCAACGCAAAACCGACCTGGTGATATGGTTTGTAGACGAGGCGTATCCATTGTTGAGGTTTAGTTACATCGGCTGGGGGAATAAAGAACGCCAACTCGGTTTCGAACTTCTCACCATCCCAATGTTGCTGGGAGGCGGGATCTCGCGCTCCCACAGCCGTAGCCTCCGGTTCGCGGTCGAAAGCTCCAAAATCAAAGGCAGCAGTCAAACGACGCATGCCAAGCTTGCTCCCCAGGATCATAGTGTCGAGCCACGGTCCTTAACTCACCGGTTAGTGCCGAAATTCAATCGGCGACTGTGCGCAGATGGTAACCGGCGGCTTGCTGTCGAAAACCAACAGCCCGGCGAAGTCACACCATATTGGCAACTCGGGTGGCTGTACACCTTACTGTTTCTGATGAATTACATGTCGGTCGCGGGCAGACGAGCTCCTCGCGCTAGCTGGGTCTCTAGTCAGAGCATCGGCTGTAGCTTGCTGTTCGTCCGTCGATCTCTACAGTCCCTTAAAGGCGTATGTATTCCGAGTCAATACTCTGCCAATGCAAGACTAGGAGTTATGGTTCCTCTGCCGGAACAGAATTTAGTTGATGCTTCCTTAGCCCCCCATCGACTATGGCCTCCCGGAAGTACGGAATCGATGCAATCTGTTCTGGAGAATCAAGTGAGTGACGTTTCGACGTTGCATGGACTCGTCCTCTCACTTCTTTGGCGACAACCACTCCAACGAATTCACCCTGCATCTATGGACAAGACGCTGACTAAGGTATACGCGGTTCAATGGCGGGGAAGTATCCCGATAGTGATCCAAGGATATGAGCTGACAACGGCTGCTCGACGCCCACCATCGGATAATGGTAAATCTACCTTACCGTTGAAAGCAAGGCTGCGTTACGGTGATTTTGTCCCCTACGGCCGGATCCGTTTAGAGTATGTCCAGTGCCGTAACTGGAGCTTACTCCCTGTAGGGGGCCTGGAACGCAGTTTGCCCATCCGTACACCTCAAGGGCGAGTTGGACTAATAAGCATCGGCATCCTGACGTTTCCCAAGTACGCAGTTAAGTATCCCGCATCTATGTTAGATCCTTTTGGGAGTTCGATTCGGGCAGCCGGGATCACACGCGTCGTTCACGAAAAGATCAGTTACCCTATGACGGAATCGTATACGAGTTTGCACCGAGGTCGCTCTGGGGTCGGGGTCTGGCGCTTTTTATCGATTCACCCATCACGGCTATCTCGTGTATTAGCCAACCTGACGCAGAGCTTAAATTACTCGCAGGGGGCTAGCGTACCATGCGCAGCAATCCTGTCTGGGCAGCCTGCTCGGAGTTTCCCACATGTACCCTTCCTCTTCCATAATGATCGACGATCGAAAGTATCCCGTCCTTTACTGTTACGTAGCCATAATCCTAGGTTACAGGTGTCCGGTGACGCTATGTTACAGCTCCGCCACTTCGCCACCCTTACTTATGAAATCAAGCGTGCATACCTCACTTCCGGTTCCATGCGTACACTTCCTCGTGTCGCCTTTAAGGGATTGAACAGAACATATCCAACCACTCTCAACACACCCCCAGAGAGATCGGGTTGCTTGGAATTTCTCTGTCGAGTAGGCTTCCGGAAGCCGTCGTGCCGCAACTCCGTTCATCATAAATCTTCTTGTACCCGTCTGTCAGGTCCAGGCGCTGCCGTCAGGTCAATTGATTCGACTTCTCGGAACGGCTCATTTTTGCGGGCATACTTTTCACTACTATTTGTAGGGCAGAACAATAGCAACGAAGCGTGTGCATTTATCAGTCGAGACCGAAACACAAATATTGGGCTCGACGGATTCTGTGTCCTCCCCGGTGCTGGATCTCTCGAAACGCGCTGCGGAGAACGCACAAGACCACACTCAAAGGAGTATAAACGTCCGCTTTTCTGCTGTTCGAGTCGACGCTACAGTGCTAGAAACGGCGGGGCAACTCGGCATTACACCGTGGGTTATTCGAGACTAACGTCGTTTTATGTAGGGGTGTGGGTAATCATCTACCGCTCGTGGATTCGAGTCCGTACATTCAATTCCAGGGGCAGCGTAGATCCCGAATGTTGTGGATTGCCAGATTCATTTTCGCTGGCCTGGGATGGGTCAATGCATTTAACGCATCTACCGCTGATTGTGCCTGGGCTTGTTGCCGTATCATACCGGCGTGTGCCGTCTTCGCGTGTGAGAAGCGCTTCGAGACGCGATATTGAGTGGGGCCCGTTGACTACTGGACTATACGGTCTATCGCACAATTATCCACGGATGCTTTCTAACGAATCTTTTAGACTCGATAAAAGTCACTTTATTCAACACGACACGTCTTATTGCTGGCCCACTAGAGGGTTTTATAGGCACGAGTTCGACCGAAAGTCTTATCAGGGATATGAGGATTTGGCTGCGCGCCGAGTGTTAGTAGCCTTCAAGTCGTTTTACCCCTTGAGCAAAAGTACCTGGACCGCATACATGGTCTCTTACAGCGAAAACTGGTTAACAAGGAATAGCCATCCGGGAACCAAACATACATATAGTGTCTCGTCCATCTCTATGACTTCTTCATCTGAAACCCACGAAGCTGTAATACAGCAGCCCATAACCGCTTACGCAGCGCAGAGGCCTACTGGAAGAGCGGGTAGCAGCGTGAACCATGAATTCTTTACAAAACCCACCTGCGACCGTATCAGTGCAGCCTCAGCACGTGTGGCGACTGCTTTTGGCCGCCGTATCGATACCTTGTTATTCGCGAATCAACAATCAACCCTTGCCCCTGGTCAGGACAGATTACGGGGGACATCGACACGCGCCCGGATAAGTCTTACGTATCTCGCGTCCTCAAATCAACTGGATGGCGGCAGGCTCCAGACCACAGTAACCGCGTACTGTCCGCGTACACCGAAGAAGCCCGGGGGAGGTCACTATGTTAACTCTTGTGTGATGCCGGAAATACACTATCTCCAAGGATTACAGTTTACCCATACCCGAGTCACAGGTCCAATAAAGTCTTACTCTAGCGTGCACTCCACGTCACGCCAAGAATACTTCGTTTCTACCGCGAGGCTTATCCGGCTTTCCCAGGAGCGCCTTGCAGCCCCGATACCCTTAGTCTTTTTCGTAAGAAGCTTCCCTGCTTGTAGAATACAAGTCACACCAGACTCCCTCCGGCAGACTGTTTTGTTAGAACGTCAGCACATGCTCCCATTCGTCCTTGCACGCCTCTTCTTCCTGATGGGACCATGCCCCATCCTGCGTGTTTGTCGAAAAGCGGGAACCACATCCACCCAAGGGGCATGCCGATCCACACACGCTCAAATCACGCGCCAGAGAAGGATACAAGAGCCTCAGGATAAATTCGTAGCCCATTTCGCCGGGACCTTCAGATTTATGCTCGACCGGTGTCCGTTGCAACGTCGCCCTATGCCAGCAGGTTTAGTTATCTTCGTTCTAAATGTACTAACTGCCAAGCGAGGCAATTGCCTTACCAGTCCTCCTCAGCAGGAAGGCTTCATTCTTATCTGTTCAGGCCGTTGCGAAAGTCTAGGGCCCGGTATAAACATGTGTTGCCTACCCAGGAGAACACACAAATATCTCCGGCTCCGTTGCCGTAATGTATTATTAAAAACTGCTGGAGTGAAGAGTAGAGTTATAAATATCTCGCATGCGTGTCACTGGAACCGTGACTGTCTAACGTTCGCTAGCCGAATACAGCCCGAAGGTCTCCTCATGTTCCGTCGACAGGCCTTCAAGATCCATGGTTTTTGTATTAAGCCAGAATTTTGCAGCTTGTCCTATGGGGTCGCTCGTGGTCAGACATTGGTTCGGCATACCTCGGCACACTCCGTGTCTGGCACCGCTCTAAGTATTTGTGGACCGATCAAGAATATAAAGCACTTGCCATGGCTAAGACTTGGAGGCATAGGATATCAGGAGAGAAAAAAGAAGGGACATTGTACGATGGCCAGGACCGAGTTATGCAGCTCACGGATGAGTATTAGGTCAAACAAGCCAGCGTTCGGCGTAACCATGACGGCCCCGATCTATGACGTGATCAGACGACTCAATGAGGCCCTACCCAACAAACCGCTTGATTTTTATAAAAAGGAACCTATCCATCCCACAGAGGCGGGCATGGTCGTGAGTCCCCTACCATTAGATTCAGTCGTTTACACGACGATGGTAGACACGTTTATTATCTATATTAGCGCCACCGCCGTACCACACATCGCAGTAGGGCAAGCAAAGCGCTACCCTTATGAGAGGGGTGCAGGGAGTGTGCGTGGCGAAAATCATTGGGATGCTCTTTCTCGGATCACTTTTCCGCAGTACCAAAGATATCGCTTAGTTGTACAGATCCGTATCGAGACAGTAAGCACGTTCGATCACATCCCCAATCAGTTTATTGTGGGTCTCGATGCACACTTCATTACGGCGACTCAGCGCTCGGTTGACGTCGTAATTTTGGATGGTGAGTATATGCGCCTGCTTGATTCCAATTGCGCCCGAGTTCACTCTTTTTTGCGCCCCCTAAAGGCAGCTACGCTCAAGCAGGACGATTCGGATATTGCAACCGCGCGAATGTCTCGTTCTATATGCAGCTCCACCCTCGTTATCATCAATGAAGCGTTGCAAGAAGGTTCTAACAAGCAGGACAAGAAGAATTTGCGTAGCGCCATGGTAGGTATGTTCGTGCCCCGTTTAACTAAATACGGTCTGGGAAGTGCATATTCAACCAGCATGTCCGTACGCATCATACTTTTTTATCGCGAACTTACGGAAGTCAACAGGATCCTAGTCCGTTCACATAGCCAAGTGGGACTGTGGCGACAAAGTTTTTGTGACAAGTTAGTAAATATGGCGCGGTCACAGTGTCACACGAGGAGCAACATAAAAGCGCACAGTATAGATTGCCCCGATAGACCAAGAGCGAAAGGATTCTGGCACACCGCGCTTATGAGAAAAGTAGCCTCATGTTGCCCATTCATAATTAGGTCCGTCAGACCAAGTAATGTCGCTCAGACGAAGCAATTTCCTCCATGCCACTTTTACTGCATTGTATCGGCAAAGGCAGCCACAGCCACGGTAAATTATCTACAGTTCGGGGACTGGGTTTTGAGTAATTTGACACGAAGGGTTGACGTATCCGACAAAGCATCTGCTAGATCGCTCGGGAGCATACATGGTGTACCTGAAAGAAGTTTCAGTTCTAAAGCATCCACTTCTCGCATATGCGTTCCACTCAACCCGTGTGGATTTAGGACTCGGTTGCAAAGGGAGACTTGCCCTGATAGCTTAAGGTCGCTCCCATCCGCTCGAAAGGCCGGTTACTTCTTTAGGTTCCTAGTGGCAACGCAATTTAACATACAAACGTTCCCTTGCGGTAGGTACTCATATTTCGGTCAAACTTTAAACTATTTAACGGCGCGCCAGGACCTCGGACCAAGCGTCCAACGATTAATCATTGCGTTATTGCGTCCGGTAAACTCGACCTGTGCAGGGGGCCGGTTCACTGTAAGCTTAGATGCGCCACACCTCCTATGTTGTCCAGGGCTGAATGGCGCCCACTTGCTTGATGCCTGTCCTTCGCCTTCCCAATTTCCGCCGGGACGGTGCCGTCAGGAGCCGGCTGTTCTCTCGCTTGATCGGGACCCGGCTAGATTGGCCGCAGGGGCGAATGAACTATCCTACACGCCGCGCTTAACTGTAGCTAGCCAAACCAATAAGTGGGAACCCGGTTATACCTTCATGGTAAAATCGCATCTAGTGGCAAAGGGTCGAGCAATCATTGTACACGAGCCTGCTTGGTGCAGACGAGCATATATCCTGTCACCCGTATCCGCTAAACTGTTTTATCGGCCGACGAAGATCGTAAAGATTCCCCTTGAACCCAGGGGTGCAGCTACGAACTCGTGCTCGTTTCGGGTCGTGCTGCCCACATGGGAGTGGGGCGAACAATCTCAGCAGGATCGCCAACCTGCTCCCGGCTATCTTGTACCTCCCGTGTCGTGCATGGTGCAAATTCAAGTTTTCGTCCGAAATAGCCGCTGCAGTAATGCCGACGCTCCTTCAAGCCATCGAGTCATCACTCAAGGGGCACCGACCACTCGTAGGATCTTCCTTCCGTGCACTATGGCCCTGTCCCGCCCCCCTATTTTCGTGATTTGGGGGCAACACTTAATGTCGATCTACCAAAAGACCCGGGCTCGTCATAAAAGCTTCCGAGCACTTATGATGGACTATGCACTCCTGCGCCAGCCACCAGTCGTCGCGTCGCGCACGGTATCCCTTGCACCTTTTATCTGGGCAAGTAGGGTACACGTCATTCGGAAAAAGCACGGGTCCCACAGACTTGCAAACGGATTCAAGCTCAAACAGAATTTGACTCGTGCAACTCGCTTGTCCAACGCCGTACCTAATCCTGGCAAGAAAGCATCTTCGACCTCGCTCCCAGTGACTAGCCAATGTTATATTTCGACACGGCCACCCATCAGTCCAGAACCGCGGGAAGACCATGCAGGGTCAGGTACGTCCCAGACGCCGTTTCATATTGGGGTGTTGACTGACACAGAAGGAGCGAACCTGCCTCGGTTGTCGACCAACCGGTGGAACGCCCTTGCTAGAAGCCACCGGTGCTTACAGGATACCATAGATATAACGTCCTGGTGTGAGGGTACTGCTCCTCCTAACACAAAGTCGGAAAGTATCCATCAAACTTGCTCGCTGCTAACTTTTTTCGCGCCTTCTCCCCAAAGATTCTCGAGCTCCCACAGCGAGTACCTAGGGTCCGTAAGTACTTCAGTACTGGCGCCGATTATGCGTTCGTCTGCAATGGGTGCTTATCCGGTACTTACCTTGATTAGACATATCTTTCTTGTGGCCCGTAAACCCGCCATGTCTGTGGGGGCCTGCACGTATAGCTACTGTCTTATGCCATGTAACACCATCTCTCATCTACGACCCGTATACGGGCAATTCCAACATAGATGGAACCTATGGGCGAATCGAGGGGTAGGAGTAGCTCTGATGCGACTAAACCTTCGAGTCTCGTTCGGCGCAGTTAAATCTATTGTGGACGGTGGATTGTGCCATATGCATGTACTTAAGGCCTCGGAGGGATCAGCAAGGAGACGAGAATGGCACCAATGCACAGTCGTGGTTCCTCCCGTTCGGTACCGATTCCCTAAAATACCTGATACACCTTCGGCGGCACATCCCGCCGGCAAAAACGGAGAATCTATTTTACTTGGTCAACTAAGAACGTGTTCGATCGCACCAAGGTGCCTAAATTGTCAGGATCTCTCGATCGACAACATTAAATCACTCGTACGCTACTTTGATTATCTAATTCGCAATACCTGGAATCAGAGCCGAAGGTTGAGGCGATGCGTTGGCAGACATAGACGTATGATTCACGGGCCCAGGTGCCTTTTCCAAGGTGGAAGGTCCTCGTCCTGCGCTGTAATTTTGCAGCGACATCGAGCCACCTCTGTTGCTAGGTCGCGCACACCAGTCGGGAGGAAGTCGATGCTCTTTCCGTCGGACCCTATAATTCCCGATATCTATGGCCAACCTCACAGAACGACGCCCGATACAGAAAATCCAAGGTACAGTCTGGGAGCAATATGCCGTAGCAAAGCTGAGGGAATTCCATGCTCCCGGCCTGGCGATTTTATTTCTGGCTTTACAGTTGGGGTGATCGATGTCCTCATCAGTCGCGTTGAAAGTAATCGTGCCATTTCGATCGCATTGCCGGGTGCTTTCTTACCCTCGCTAATGACAGGAGCTCTATCAATTTCGCTAGGTCTTTTTGCCCAACGACCTGTAAGGTCGCGGCTCGACTTTGGTGCCGTAAGTCTTGATCCAATGTTACTAGTTATAACCATATGCCCGACAGAGCGGCGATTCGCAGCGCAGAGTAGCTGGTTGTTCGAAGTGCTGGAGACGTACTGTGCCGACAACCTAGCAGAACGCATATGGGGATCAGCATTTGAAGAGAGGCGTGCAACAAACACTATATGGAGAAGTTCTATGAGATACTATGAGTCAGACATTCATGTTTTCAACCGGAACACTATAATCGGACACACGCCCTCGATGTTCGTTACAGTCGTTCAACTAGATACGAGGGCTAGGCACTCTTTCAGGAGGGGGCAGTCTTGGGAAATACAGTTTCGCAATTCTCGATCAGCGCTCAGTGTGGTTGCGTTGATTGGTGTCCGTGCAGTCTTAGATGTCTGCGGTGTCACCTATATTCTTGACAAAACTCCCCGTTACACCTCAGCGTTAACCGTTCGGCGTCTATATTCACGCTATCAGCTACGCGCTAGTAGACCTGGTAACAGTATAACCTCGCGCTGCGGATCATGTTGCGACACGCCTGAAAATATTGCCAGAAGAACGCCGTTCCAAGCGAGGGTTACTGCGACGACCCGATCGGGCGGGCGTTCAAACCATCTAATGGCTATTTCCTCGAACAGTGTTACAGTCCGTCGCTGCCTGGAGTGGATCTGCCTTATCTTCTTTGGACGGATAATAGTTGCCTCCAGCTTTCATCCTCCGCTTTCAGTACGTCGATTGATGGTTCGCAGTTATACTCAGTACCCTGATTTGATTATCCTAGAGGTGCATAATTTGCGGTTTACAGTATCTCTCACCCTTCGCACCAGCACGTCTTCTGCTGTCGACAAGACTGATGTCGTGCGTTGGCTAAATATCTATCACAGTTATAAAGTCTTCTTATGTAGACGAGTAATAGATCTGACTCTGTTTATTGCCAAGCTTATGGTTATGGCATTCTTAACTACACGTAGGGTGAAGCAAGAAACGAGGAGGTGTTTGAAAGAAGCCCACAAAATAACAATATTCATCCTATTGGCTTCTAATCCTGCTAGATTGGTCGGTCGAGCAGGAATACATGAACGACACCCGTTAAAGTTGAGCCGGACGCTATCGGTTTGCGCAATAAGAAATCACATACCACGCGAAGGGATAGAAGAGTTCGACCCCCCGCTGAGCGGCTGGGAAAGCAGACGTTTCGGGTGCCCAGATATGAGACTTGGTCCTTGGCTATACCAGGCCCTACCGGAGGGTCCGTCACAATTGAGGCGCCGTACTGGGCCACAAGTACCCAAGTGCCTTACTCGTGAGGTGTTGTGTGACTCGGTAATCCGGACATACAGTAAATGCGCGCCGTTGTCAGGGGGGACCGCATGCACGCAATTCAGATGCTCATCTGGAAGTACGTGGTGGATTATGGCGCCCCGCTCTACCGGCCCGGATAAGTTTCCTAGGGTCGCGATTCCTCCGAGTATCGACTGTAAAGTTAGTTTCGAGCGCCGCACGTGTCCGTCCGACGCTCCGAACTTTCCATCAACAGTACAGCATCATCCACATTATTACCCCCGGAATGTTTGCGCTCTCACTTTCCCGCGACGCTGGGACCTGAAAGGTTCTTCTTCTGGAAAGCGGAGCCCATTTATGTTCGAGACTATTGCTAGTTGTACCTCCTGGGTGTTCCCCAAATGTGTACACGCACCGGATACTGGCACTGCTGAAGGCTGCAGCCGCCGTCGAGCGGGCACACGCTGTTGTATCGTAAGTTTCCTCGCCTCCTGCTTGGGCACGGTTACATCGCCACAAAACACATTCCATTCTGGCGATACGTCGCCGCAAGGACGCAGGAAATCGATTTCTTTATCGATGACAGCAACGACACCTTTTGATGGGAACTTTATCATCACCACTATTATCCTGGCGATATTATTTTGTCCCGTGCGTATCGCTGGGTTACCGGCAGACTCGACAGACAAAACGGGACCCCTTTTCAAGGTTCTGACACTCCCTTCTATTGTGTTCTATAGAATGAGGACACGATTCACCGTCACATTGGTTCACACTGGTGTGCATCTTGGGGCCGCCAGGGTCATTATACCTAGTCCTTCCGATCCTGATAGGGATGGGCGCGCGCTGGCCTCACAACTCGTGCAGGCGTGGCTAGGGCCCGCAAGGGGACCTGATTTTAGTTCCTCTATAAGGCTTCGCGGGAGAACCGTAAGAGAACAAATTGTTAACTACTGGGTGGCGAGTCGCTCGGGGAAATTTTTTCAAGATTATTTGGTCTCATTTTGGGTAATTTGTTTCAAACAACACATCTCTATAAAACCTTCCGTGATTATTCTAAACACGCACTCAGGACAGAAGCTAATCTGCTCTGACCACCGCGATCTGCCTCTCCCAGATTGTCCTACAGTCACTCTAGCGCAAAACTTTAGGCCAGCCTGGCACTCCGAGAGAAAAGCATGGCGCGCGGATTGGGAGGCAAGGCACCATAGACTTATTATGCAGCATGTCTCCGGTTCGACAAACATAGCGTTGCGTGGGTATGTGTATTCACACGCAAGCCCATGGTACCACAGCGTAGTCTCTACTATTTTGGTCGCTCATGATATCGTAATAGGCGCCACTGGTATTGCGGTAGACCTGCCATTGCCGCTTATCTCGTCGGCCCCAACGGAACCAATAATCGGGATAACGTGGACCAAAAGCTCGTGGCATTCCTGGTCGGATAGTCGACTGGTGCTATTAAGAAACAGGGAATACCCCGACGTTACGCTTACGGAACAGAAACAAGAGACACAGAAACGCAGGGCTCTTCCGCTTGCGAGATCAGTTTATCTTATATTGGCGACCTCCTCGCATCGCAGCACGCAGGTAAGGTCCCACAAGTTCCTCTTCATAGTACGGCCGCAAGATATTAGGACTTACTGTGTGACCTATAGTGCTAATGAGTTGGTTGGTGCACGGCATTGCTATGCGTGCGTCAAGATATCGAGCTGTAATGGGCTACCCTGCTTCGGGTGGCAGAAAGAACGCTCCGTTCATAGTGAAGACGTCTGCTCACCAATGGCAATAATATTTGCTAGCGCCAAAGACCAATCTGCGCTTTTACCCATCCCAGGTGACAACCTCATTTCAGGGCCCAGCTCGCCGCACCTAATAATCCAATCTTATAAGAGAGGTACCCCCACTAGCCGCAACCATAGCAATTTTTCACTTTATGCAGCCCTAGGGGGCATGCGCGGTCATGATTTCCGTATTCGCACTTCTATATGGCAACGGCCATGTGGCTCGCGTGAAATACATGCACGAAGCTTGGTGCTAACCCCCTGTGTTAACTTCGGTCTCGTAGCACCGCCAAAACATCCACGCAGGGAGAGCCAGCCAGCCTCCGGGAGGACCAGGTTCAGCAATCGTTACCGCTGGCGTGGAGGGCTAGATCGCGTGACTAGCCCACGTCTAGCCCCTGCGCGACAGAGCCCCCCTAGGCTGCCAACTTTGTGCCCCTGTGATTGCAACCGCGACACAGATTCCCCTGACCTAGGACACTTCACCCTAGCCTTCGCTAGTGATAGGTTTCCCTCAGGGTCTTACGCCCGACTTAGTACAGCGTTCGTCCTCAGCGCGGGGCGTTTACGTTATTCCACCCAGCAGTGGCGGCCGAGAGGTCATGAGCGTAACGCCACTGACCATACTTCGAAACCTCTGATCGTCGAATTGTACATCTCACTCGGGTCCTTCCACCTTAACCCTATCAACGCAGAGGTTCAGAGAAGGAAAGAACGTGCGCTAAAATATTTCCCTCTGGATTCAACTCTACCGAATTCAGTGTGGGTCAATAAAGATTATCGTCCGTATATGAACCCGCGAATCGCACATATCGTGCAGCAGGAACCCTTCCTAAAAACGTTTGAGTATCGAGGACATCACCTGGTTGGTATCGCGTCGCTTCCTTACGCACTAAAGGGGACTCACTCGAGCCATAACCCTTTCTATCCCCGCTGCCTGAGATCTCAACTCTCCTCTAACCGGGTACGCACGACGTCTGGGAGATCATGGGCAAGTGCTGGAATTAAATCAATACTCTCTGTCCGGGGCCCATTTGACTTTGACCTTGAGCATGTCTTGTTGGCCGAATCGAGTAATACCTCTCTGGATCCAGGGTTAATTAACGTCCCGAGCGAGAAAAAGCATTCGGATACAACGCATGTCACTTTCCATAAGGCGCGGGCTATTCCGAGAAGTTGCTTCGAAGAGACGAACACACCCATTCGAGCCCGAGCTAACATTACGTTCTCTTCCGACCGATTAGCAGACTTACGGGAAGCTGTAGCAGCCGATAAGTGCATACAGGGCCCGCGCCGCCTGAACTCAGATGCGATTTATGGAAACCATTCGTACGAATGCGGCTCCGTCAGACCAGGGATCACAAGGTCACTCGTGCACTATAATTGTCAATTCCAGCTAGGTCTGGGATCCGGGGTCGTCAGCAAGGAGTTTGTCGTATCAGAGAATATCGCCCATATACCCCCTCACGCAGCAACGTCTGATCAGCGCGTCACCGCACTTGATGGCCGTTCACGAGATCGTCATTTCCGTATCAACACTAAGCCGATATCGCGATATGGTTCGGTGCCGCAAGCTTCACCGACTCTTCAGGATGCAACACTCTATCTGGCATACCAGCAAAATTGGGGCGCAACGGCCATTACTGATCAGGCCGGTTGCATTTATATAGACATGAGCTACCGCGCTGCTAGCTCACTCCCCGGGATAACTCGGACTACTCCTTGGAGCTGTTCAAAAGATCTTGGCGGGACTACATCATGGGTCGCCATGCGTCTATTTTCAGAGTGCGGGACTGTAGCTGCCGAAGGCCAGAAGTATACCACCCCGTCTCCCCCTTTATGTAGGGCTTGCGAACACCACGCCACCTCGTACAAGCTAGCCTGGGCGCGTCAGGAGTGCATCCATGACATTCACGGTTCGGCCGCGCGATGTATCATCAGGAAAAGTTGGAGACTATATATTAAATTTTTTAGGCATGGAAAAGCAACGCCCGGAAAGACCACACTGAGAACGGGGTGGATAATAGAAAAAAGTAGCCCGCCACCGCACGTCACCTCACACTTTATGCTGAGAGGGTTATTGAGCACGATTATGACAGAAGGTATCGTGGAATTGGCGCTTAAGCATCGGCCGGGGTCGCCTTCCCCTACTCGAACCCCTATACTCTTCTCGTGTATACTCACTATATGGGACTGCCGCGATGTTTACTGGCAGGTTGTCGGTGAAATGAGCGCACTCTTAATGGGACTTCGAGTGCAGCGACATCTTCAAAACCCCCAGTTCGGGAGATACAGACTCAGCAAGCGAGTCGTTCTTGCGCATCCTGGCAAGGATTCTTGCCTCAAAGATCGTTGGGGACGATCAATCGGATCTCCTGTATGGTCTTCATTGCATAGGAAAAACTTTAGGAGACAATTACCGCCGGGCAGTTCAATTGAAACGGCTTATGCCGGACTCCGCTATACGATTAGTAGGTACCTACCATTCAATAAATGGGTTATACTGATCAGATTTGAGAGATCACGGCGCCGCCCGTCGGAGCTGCAACAGACGTTTCTCTGGCACGGTGCCCAGACGATTCAATTTAGAGGTTGTTCCCGGCCTCTGGTTAGGAGGGTCACCTTAATCTGGGCGTGCTCAGTTCTCGCGTGCTTGCCGAAACTACTATCGGGTTTCATACGCTACTCGATTAAGCCGTATTTATATCGAGTCAGGCAATACGAGTATTCACACCGTAGTGCCACAGCGAAGTCGTTGGAAGGGCCATTCAGACTAGACTCCATGGTCTGCCTATCTGCTGCACAACAAGTCCAATTAAGTGGGTCTCTGAAAGAAGTTAGAAGATGGGTGCGGGCCTTGCTGGCCAAGGTTGGTAAGTCGCCCGAACTGTTTCCCAGTGATTTGTACCCCATTCAACTATTGTGTCAACAACTAATAACACGTGCATCTCGCGACACGACCAAATGGGCGCTCTACTGGTTACCACCGTGCGGCGGTCAGAGTCTGGCGCTGAATGCAATCTCAGCGGGGTCTCAACACCGACTAATACGACAATTGCTGAGACGGAGTTCTTGCAGGGTGGCTGGCAGACCTGCCTTGCCGCTCTTGCAACCTCAAAATAAGGACCTCGCAAAAGGTCCGCGGGGCGTGCCACTTAGCTCGGGCGATTGCGAGTTTGCTGATCATCGCAGGCATATCGTCGGCGCGCCATTCCTTTCTAGTAAGGCACCGCATACTTCATGTCCTGAACCTCCCACTGGGTCGGGCCGAGACTTCCAAGGAACGACGTGCAGATGGGCGACTGAACTTAGTTTCGATGCATGCACACATGACATGGACCGCATGCCTAGACCAATCTCCCGCAAGTGGCATTTTGAAGCGCTTTATCAAATTACGGGTTTCGGACCAGGACTTCCTGTTCATCAACATGCCTGCTCCGACCGTAGGAACGGGTTAGAGTACACTTTCCCTTGGGGGAAATCTTATCCTCAGAAAATAACGCGCGTTGTTATCCCTTCTGTTCGTTTTCGAGTCGATCTAAAGCCGGCCCCGTGGGCGACGAATGGATCTTTGTGGCGCCCATCCTACGTTCTAGCGTGGCTGGGTGTAACTACATTCCCCGCCAGGCATGCCTACGCTCTAGCAGAGTCGATGTGGCTCGTGATATCGCTGACCCGACCTCATACTCCGATATCACTAACGTTTGGTAGGAGCCACTACATAACCCTTGTGGATCCTATAGGCGGGTATACGCGGTTATGGTTGTACAAGGACCCAGCTTCACCGAAAGAGGTTGGGCTAATTCTCCACGACGACGCCCTTGAGACGAGGCTGATGTCTTGCACCGGACTTGCATCTGTTGGCGGATTGGTGACGTGGTATGTGGCATCGACATTTCAACCTCAATGGTTACCTAATCCTAATGACCGCCCAACGGGGATAAGTAAAAGAAAATTTTTCGTTTTACCGCCTCACTACCCTGGTTACCCGTGTGAGTCAGGCTGCGGCATACATCAACGGGAAGGATGTATTGTACTCTGTTCCACTGCGATCCCGAAGTACCAATGTGGGTCAAAGAGGCATTCGGAGCAGCCCGGTGGAACTGACAATGGCGTAATCATGTTTGGGCACAGAGCATTGTCCATTCAGAAGAGTTTGCTATCTCCCAAGTTAGGCTCTAGAAGTAACCACGGTATATATTATCACTCGAGAAACCAGTCCTTCGCAAGATGTGACAGAATGAGCGTCATCGAGCGAGGATACTTCCTTACAGTTCCTTTCCTGCCACAGACGACGCGCTATTCTGAGCAGACCAGTAGCAGCAAGCGGTGTTCGAATTACGGTGCTTTATTTTTATACCGGGGTCCTTTTACGAGGCTCAGTTCTAAAGTTTCCTTCAAAACTCACTCACGATTCGTTGCAGACCTAGCATTTATTTGCCAGACCGGAATAACAATTCCTGCTCCTGGAACTTGCATGCAATTCGTCCCCCAAGAGGGGCGTGGAGTGTCACCTTCCGGTGGAGGGGCAACATTCCTGTCGACGCGTTTCTCTCCCTTGGCTACTGAAGGCTCAATATCGTCCGACGCTGGAAGCCCATCAGACTGTACACCACGAGCAGTAGATAAACTTTATGTGGTGATATCACAAGCTGGTACGCGCCTCGAGGGGTTATACAACAACTACGGCGAGGCTCTCAACTCCTGGATTAAACGATGTGTACCATATCGCCGAAATACGCACCGTGTTGGGTGCTTGTCCGTCCACAAAGTTCTCCGTCGAGCTTATGTGAACCGTTGCCAGTTGCAGGTTGTCGATGAAGTCTTTAGGGTCCATGAGCCAACGACAGCGCGCATTCTTAAGCTTATCAGTCAGACTGAGTATTATAGCGTTGGGTTCCCAATCCCCTGGCATTGTGTACTTCTCGCGCCTGAATTTGCGATTCTTCCCCCAGAGCTGCTTCGTCATGCCTTCTCTCCTTTCCCACCGGCCGACGACGGCGCCACTTACGTCTTGGAAGACCTCCCTAAACTTACTTCCTTTGCCGTGGTAAAGCCTTGGAACCAGCCTACGCCCTACTACAATGGAAGAGCGGTAGAACCTCATATTGCGTTTTCTTTGCCTCAACTCGAATATATGCACACCCATAGTAACACAGCGACGTCCTGGTGTAAAACGAGTGGGGCATGGGTGCGTCGTCCCAAACGACCGACTCATATCAGATCCGATCCCTTGACTTTGCCACTTCGCGCAAAGCACACATTAGGAAGTCTGGTCGCGTGCTGCCCAGCACACATATGCGCCTCTTGCCTTAACCGGATATCTGCGACGAGCTCGCAAACATGGAGACGTCAGGATGTGTCGATAGGTGGGGGAATACGTGAAGTGAGATGGGACTATTGGTCTTCTAAAGTGCGAGCTCTATCTGGGTTACGTGTAGTGTCATTTTGGTCGTCATGGATATCCCCGGTAGGTGGCGTATCGGGTCCTGTGTCATCTCCTCCAAGAACCCCGATGGGGAACGGGTACTTTGCACATGCATTAATACGTAACCATCCTATGATAGGCTCGTGGGATGTCTTCTGCAGGAGGAACACTTCGGTGCCGTTGGGGCGTCGATCAACATATGATGTTACACAGTACCCAAATAACGCAACAGTTGCAAAGCATTGCGCCGTATTAACAGATCTTCTTAAAGCTATATCCTCGTCTTGTTCGAGTACGCTAGAGACAAAGAGATCCGGGAATACTGAAGAGAATGGCACCCAGAGAAAAAAACGGGGTTCTGATTTGAAAATCATTTGTTTAGTAATTACGGCAGTACGCCTAGTCACGCTTCTCTTTCCCGTTGGACTCGGCCCACAATACAGTCCGGCAGTAATCATCTATACTTTACCTAAGGCATGCCGAGTTGATGCGTTACAGACCGTCTTGATTACTGGACCTAGCACGGCCCTCTGGCAGGGACTGAACTCAATTCCGACGTATGTTACTTTCCAAAGGTACAGTAACAAACGAGCTGGCATCGTTACCAAATATGTCATTAATATAGTGAGAAACAAGGGTCTTTTCCGCGGGACCAATTTAACTACCCTGGAGCAGGTCACTTTCAATATACAGGATCCTGGAAAGGACGTCCTGTCTTACGCCGAAAGTCGAGGTCAAAGACGACGCATTCGAGGATTCCCGACGATATGGCATCTTGCACTGATCCGCCGTAGCCGGGTAGTACTTACGAAATTGGGTACTCGCCTAGAACTTGCTGCCCTCAAAGCGCAAAAGAAGGCGCGAAGATCGTCGGTGTTTAGTCCAATGTTATATCTCCCTCCACCTTCACTCAGCCGGTCAACGTATGTACATGCACAGCGGGTGATTATGCCCCACGGAAAATCATGCCGGAGTAGATGTAATACTGCAGGGGCAGGCTCGGCGACCGCGTATCTTACACAATCCCCGAAGCTTGCAAGCGAGCGAACTATTGGATACACGGGGTTGGCTTTTATGGTTCCAGTACGTCGGTTATTTATGGACGGCTGGCTATGTGGGTACGGATCCTCAGTCATGTGTACCGAGAGGCGTCATTGCCCCAATCTATTTTTATTGGCGCGGAAGGTTCAGCGGAACTGTCGGGAGCGATTTGCTGGCTCTTGCATGATGACGAGCCGTCGACGTTGCCTGTTCTATCCCGACATGTATAGTAGGAAGTATCGAATGCTTACCTCGCGAGACTGTAACCAGAAGCTTCTCACGGACCGCCGAATCTCACGATCATTTGTCGCACTGTGTGTCAAGCCGTCGGGCTGTGGAATTGCGGGGGTGCGTTTCTTGAACGTCTGCCTCGCGTTCTGCCGACCGGGAGTACCCCCTAGAGCCAATTGTGTGGATCCGGGATACCTGCGTTATACGCATGCTATCTGTCGTTACCAGAGGCCCAGATTAACTCTATACGTGTGCATTCCAGCCGTCTCAGAAAGGGCTCCCCCACAATGCGACCTAGATCTGGTTTCAATAAAGAGCAAGAATTGGGAGCCCCGTCTTAGTTTAGGCCTCTACTCGATTAACTTGTTTTTTCCTAGACGGCTGTTGTTTTTGATGTGTGAATCAACTCCCCTACCAGGCCGTCCGCGTCCAATGTTAATACCGTCAAATTATGTGGGACGGAATCTACCTCGGAATACGTCTACACACCATCTCACAACATTTGGCAGGTCACCATTCTGGCTCTGTCAAGTACGCAAGCCCTTTCATACCTTAGAAGACTATCGGCATCAGTCCGGAAATGTCGGCACCACATCTGATGCGTCATCCCGCCAGGTTAAACTTGGCATCTATGCTAGTACACTCTCCGCTCCGACTAGTGGCGCCGCGCGTGAGATGAAGTGTGAGCGTCGAATAACTTTTTCGCACTTGGGTATACTTTACGCCGACGGAGCTTGTACCGTCGCCACGCGCGCCTATACACTCGGCGCGCCCCCCCCTAACGTGCGTCTCGTATGTGCCATGGCACTCCCGTTTGATGGGGATTCATCGCTGGACCGAATCATTTTGGTCACTACGGTTCCTGATCGTAGTCGAAGAGTTTCATGCAAGAGACGCCTGTTCTGGCTCACCCCCACCCATATGCGATTTTGGGGACGGACGCACTACACTTATTTAGCATGGTCAGGCCTGCTTCCATGGTGCGAGTTAGGGTCCCTGACGTATTACCGAGTGAGAGAGGGCCTAGATCTGTTAAGATTTCGCAGCGAGATCCCTGTTAATAGTAGCCGTCGCCGAACCCAACGCAGCTTTATCCATGGAAGGTGGGTAGCCGCACAGCGACGATTACTGTCGTACCGGGACCTCTCACATTTCCTCGCTCTCCTCACGGTTTTCCACAAAGGGTTGTTACCGATAGATTCAGGGGAAGCACAAGACGTACGGACATGGCGACTCCTTCGTCTGGGGAGGACGCTTCCATTGAGTTGCGCGCGTATTCCAAGGACGCCTCGTATAAGTGAACGAAGACGCACGCGAGTGCTCGAACTACTTTATGAACTACAGTACACTCCTCACTGGGGTTTGACTTTACGGGCCCTACGATCACCAGGGTTGCCGTGTCTCCTTAGAGTTTCAACCGTACTCAATGAAATGACATGCGAGGCCCGGTCGTTCCTCCCCTTCCGGGTGGCCATGTTCTTCAATCTCGAGGGGCGTTCCCAGCTCTTGAGGGTTGCGTGCCTCTGTACCCTGGCTACTAAGCCTGGCAATGGCAGTCCGGCCGTGTTAGATACTGACCCTTTTGTTTTTACGTATCGGGACCCTCTAGTGCGCTGCAGCCGTCTTTCTTTGATGCCTACTATAATAGCCGGGTACTGCGAGGGGGCACGCAGGTCCTTACAATTCTCAATAATCGAACACTTGTCCCTGACAATCGCTCAGGTCGGAATCGTAGAACGCCTTATTGTCGTTCCACACCATTATGTGACCGTAAGGTGTATAGCTGGGAAAGTCACCTTATTTAACATACAACTGAAAATAGGTCCTAAAACAATACGTGTGCGTTTTTACGTTGTTCCTATGTCTGAGCACTATAGCCGAGTGACACGAAATCCTGTCTTCGTCCTGCACAGATGGGTAACAACCGATCGAAGCTCAAGTCACCCAAGTGGATCAGCAAGACCCTCTGTCGTAGGATTTGGTACATGGAGGCCGCGCGTAAAGTTCGCCATCCAAGCTTTCGACGGTGATACTCAACGGGTTGATTTGACTTTACCTGGCGCTACAGCTCCGTGTAGTACGTTTTATGGGATATTTTCTGCCGCGTACGTCCGCTTAACCGCGAAGATTCGATATCGCACTACTTCACTAACTACGCGATTTTCAATGAAGAGCGTTCATACGAGGTGTAGAATTGTAGAGGGGGAAAAACGGATGGTGGTCGCATCTAGTCTAGGTAGCGACCCCGCCCCTACATCTCTACAGATTGGTCTTCATGCCCTCGTCGTCTGTGTCTGCGGGAGGTACGAGGGCCTGACTACCTCTGTAGCTGGGGCTGAAGGTAATTGGTCACAGGATTACCTCGTGGACTGGGCAACGCCAATCTGTACCACAATCAGTCCGACGACGTTGCGAGACGTAAGAGAGGTTCATACGCTGCATGTGAACCGTAACGCTGGGGCCGTGCAGGCGAGCCGCTTACTATTCTCAACGCGTGGCTTCCGAATACGTACGGTACTTGAGGCAAGAACACTTGATGTACTACTGGGAGGCACGTTCAAATTGGGTAAATTCCGAAGCGGTCCGGCTCTGCGCTCTAGTGGGCGTTGTCGTAAGGGACTTAGAGAACGTATCGCGAGCGGTTCGGCTCGCCCGGGTATCTCCGCTATCGCTCTTTTTCGAACACGTCACTTTGCCATACTAGGGTTCAGAGCTAGGGGATGTATGGCTTGTCCTCTAGCGGGGGGTCTGATTTGTTCTTGTGTAGCATTTGGAGTAGTGGAAAAATACCGGAATCCCACACGCAAATCGAAGGTGAGTATACGCCCCAGCTTCCTTTCCTGTTGTGGTTTGTACCGGCTCTCACATAACCAGAATCGTCTTACGCACGCAGAATCGGGCGTCGACACTACCGACTACCAAAGCGGGCTAAGCTGGCGGTTGTACCCGGGTGCTCGGTTCTTTACTCATAAAAGGTGTAACCGAATTGACACTGGCTTCCGTGTTATTAGGTGCCCGGATTTCAGGTCAAAAATGCGACGTAGGAAAAGTGAAATACCCCTCTTGCTTTCCCCCCACACCTCTGAATTAGTTTTTGTCTACATCAGGCCTGTACTCGGGTATCGTGTGTCGGTCAATCATTCTTTCAGACGGCGACGCGCGAAAAAGGTAGATGAGATCCCGATTGCCTTCACTCTCATAACCGTTGAAGGGCCGGAGTTTACAGTAGCGACTCCCTCACTGAGGGACGCTCGGGGTTGGAGTATCTTACGACTGGGTTACCGTGAAAAGTCTCGTTTCCCCAGTCTCACTCTGGGTACTTATGCTCGGGAGCCCCTGTGGCGGGGACTTGAATTTAATACAATCTCCCAGTTAAATGCTGTCCGAAGAGGTTCAGGTCTCCACGCAACATGTGCATCGACTATGACATCAGCCCGCATTAGTTACGTGATCCTGTTGGTCCTGAATGGTTACCAAGGTAGGTCCAGGGGCGGACGCGCAGGGTCAGCAATACCTCGAATCACCCGGGTTTCATTCCACGCGAGTGAATTATTGTCATTCTTCGTATGTACACGGGCTGAGACCGATGCTAGATCTGGACGTAGATCGAAACAAGGGAAATCCTGCTCCCCACCGCGAAAACTTCGATACTCTCCTCCGGTCAGTAGGCACAACACCAGACGTGCTCCCCCCAACAGTTATATCCGTAATTTCAGCGTGAGAACACTAAAGGTAGCATCCTATTCTAGCAAAATGTGTCCTGCGTGTCACCTAGGGGCTTGGGTTCGCCCAGTGGCCTCAACTAGGAGTTCGTATCCTATGAATTTGACTTTTGGGGAGTTGAACCGATGTCCTATTGCCCCAAAAGCGCAGCCTCTGTCCGGGGATTCGGTTAGGTGCCAT'
p9
sS'gibbon'
p10
S'AGACTGGAGCATCCGTCTATTTGGCGAAGTTTCGGCCGCGGATGCAGGAGGTCCTGTGATTTTAGCGCTGTTGCAGAGAATACGACGAATACGGGACGCGACCACATCTCAGGCCCGTTAAACAGTCGTCCGGCTGATCGGACAAAGTTGGTTATGCTTTCGCTACGCGGCTCCTCCTGCGGCGGGCGCCTGTCGAGCCATGTGCCGATTAGCACTGTCACGCATCGCTTGGTGCAGGGGTATAAGTTAGCACTGACCGGTGAGACTCCCTATCGTAAACCATTCCACCGACGCCCTGCTCTCCAGGTGCATGGACACCTTGGTTCGTTGATCACAGTGCAGGAAATACATTGTAACAATAAATCCGCCTCTGGTCGTTCACAGGTACCGTGCTCTTGGGAGCGGACAGGTGGGGGGCTCTTCCCCTCAGGAATAGTGCGCGGGGATGCTGGCGCCCCTTTTTCTGCGGAATCGCGCCGGCTTGGGATTTACGAGCCCAATGACTCTGCCCACACTATTCTACTACGGCAACTAGTTCAGCTTTTCTCACTGGGCATTTACGCGCCGCCTTCGGTGAGTTCCTACAGTTGTGTGGCCCGGTCTATCCAGCAGTTGTGTGATTCTCATCGTCCAGCCACTGTCACGCGTGTCAAACGTAAGAAAGGGGACGTTTTTAGGCGCCTTAACAGTTGCCAGATAATAGCGGAACGTTCTTCTTACCTACACCCTCCTATGAAACATGCGGTCGGGAGTGATCGGCCGAGAGGAGAAGTTTACGATCTGACTCGGGAAATTGAAAGGTATACTGGCGCTCGAAGTCCCCGCTACACCGACAAGCCGTATAGATTATATGTCAACAGTGTAGAAGGCTACCAACGAACCCGGCTCCAATTTAGCTCAAGGGCGGACTTGAGCTGCAGAAAACGGATAGCGAAACAGACCACTGTGAACACGTTGAAAAAGAGACCATTCGGGCAGTGCCTAGAACCTAACTTCGATACCCAGTGGCCTAGGTTCGCCAGACAGGCAATTGAGTCTAACTTGCACGGGTTGGGGATCAGAACCGCACGACTTTCACCGGTAGTTATGGGCCGGCACCAGGTAGCACAGGGGTGCGTCTCCTTCCGGCACTGGTATGAACAACTTAGGGATGTATGCGAAAAGGCACGTGCCAGGCGTTCTATACCTACTAGCGAAGGCCGACAGATAGGTTTCTTGTGTTGGGGGGCGGGTACCCTTGAGATTACACCCGGTGGTCAGGCTGAGCGGACCATTCGTCAGTTGCTATCAGCGTCTACGGCCTTCACCTATCACCAGTTAGAGATCCTGCAAGGAAACGACTCTGCACTGAGGGATCCCAGTCTGAAGGGAATTGATGATGTAAGAGAGACGAACCCAGTACTGTCCCGAGAGTATGAACTTGACGCCTGGGGCGATGGGGGCTGTTCAGGGCGCAGTCTTCTTCTTATACAAGCAACATTCCGCCGAACAAGGAGGCGTCCTTCAGGGTCCCCCTCGATCGCGGAGGAAGCGGTATTCCTCCATCATGTTGGGCTGGGGCCCAACGGGAAGGTCCATTTTGTGAACGCTAGGCGGAATCTAGCGCATTCAGTTACACCTGGGAGATTCATGCACGCGGGAGCCGCGCTGAATTGCAGACGGTGCGACGCGAATGTACACCTGACAATTAGCGTCCGCCTGTTCCCCTGGTCAAATACAGTTCTAGACCCGGTCAAAGAAATAAACTGTCGTGGAGCCGCCGTTACTTGGAGCGGAGACCGCCAGCGTGATGTCCGGTGGACGCGAGATAATCTGAGTGGAAGTAGTGAATCCAGCTATTTCCTCTTGTCAGGGGAAGCGGCTTCCAACATGGCTCAGTCGGCATCCATCGGAAATAGTACACTCCGTCGGATCAGCAGAGAGCTAGATCGTCTATCTATGCGCAGGGTTATTTGGCGAAGGCTGGTTGTTAACTCGGTGTCTGGATCCAGCATTCAAGCCATCAAAAACGCGTTCTCTGGTCGATTGGTTTTTAAGCGCTTACACAGTGAATCGACGGTTCGGAGTCCGAAATCGGAGAGAAGATGGATTTTCCGCACTTCGATCATATGTGTCACGCCGAGCCATCACAAGCATTGGTATACCAGCAGGCGGGAATTATACAAGCCCGATGAAAGGTCCGCAGCTCCCAGAGCGTTGGTGGCATCCACATCAGCTGTCCCGGTTCCTTCCGTTATAAGGCATTTATTTCGACATTATGAAATGGGAGCCTCCTGTATTCGCCTCGGCGTGCATCACACCAAACCAATTAAAGTGTCTCATCACTTTAGGTTCAGGTCCGCCGCCGGCGCAATGCCGGGGTGCATCGTCTTGTCCCGCCCGCGCATGGGAAGTTCAACCCTCCTGATGTGCCTCGACCCGCTACCCATACAACGTGCTCTGCTGACACGTGCAGACTGCGATATGTCTCATGGCGCAAGCGATGTATGCGTTCGATTAACCGGAGAAGGCGTTATGTCAGTTTTATTTCTGCAGAAATTCAGCTTGTCAACTGTGCAAAAAACGCGAGGTCCAAAACTCTACCGTAGCTTGGCGGGCGACAGCTCATTTACCAAACTCATTACAATCATCTCGCACTCGTACGCGAACTCTCAAAGTAATTATCCTTCATTAGGAGGGATAAGCGACTTCGCTAACTCTTCTCCACCATGCTTCCCCAGATTAGGACCTTACAGGAGTTATAGCCGATCTGCACCCCTAAGTACTAACGGATTGGCACAAGTCCAGCCTCTTGCGGTACATGACAGTGACACCCTCATTAATAGCAAAGAAGTCCGAGCATCTCAGGGCCGCTGGAGCGGTGGCGGACTAATTAGCGGCGAGTATGGAGGTGCTCCGTCATCGTATGCACGGAAATCCCCAGTTCCGGAATTTGATGATCAGTCCATGAAACCCTTGAAGGGGGTTAGGGCCCGTAGTCTCGCTAAGAATTCTCTAAATGTACAGATATTCTCATGCATGTGGCGAGCGAACATAAGACCGTCCATTAAGAGGTGCGATCAGCTGAGTCCAGGGCTTTCCACGTCTGGATTAAAGTGTATTAAGCGACTTAAGAATCGGAGCCGTAGCGTCGGTAGGTTCTTCTTAGACCGCGACTGTGCCACGAGGATGCATGGGACCAATGTGAACCTTCTAGAAGCTCCTCACACTGTCGACGCCTCGGGCGGAACGTCGTTGCTAGTACAAGACCCTGTGTGCTCGGATTTTGATACTGGTGGGGAGAGCCCAAAGTCATGGTTTAACGCACTCTGGGGTTCGTTATTAATTAGCATAGTGCATGATAATGAACAAGGGCCTAGCTCAACCGCGCTGGATTTTTTGAACCGGACGCACAGGCAATTTATTCTATTTATGACGTACGACGCTACTCGATATGAATCACCAGGCACTTGTCTGGAGGTCCGTTTTACCACAGGTCTCTATGCTCTCGCCGCTCTCACCCAACTAATACGGACAATGGAGAAGAACGGGCTTGTCCCACTACAGAAGGTAAATCGTTCATTGGTCGCTGTATCCCAAACTATATTGCTGGTGATCAGACCCGGGTTGACGAACCGCTACACTGCTCAGCTTCTACCACTTGAATTGTGGCTTTATGGACTGCATGGGCTTTGGTGTAAAGCGTCGCACGGTCCTGGTAACCAGTATGTGAAATTCCCGCTAATGCACAGGTGGGAAACAGCACGAGCATTCCTTTTCTTCTGCAACGCAGCCGCGCTTGTCGGCGAGCATTCGAGCCTGCTAACGGTAGGCACCAGACGATCGGAGCCTACTGCGTTATATCCCTTCGGGCAGCTGGTATGGCTCACTCACTCCGTTATAAGTCTGGTTTTTGATGTACTTTGGATAAGCAGGAAACGAGGGTCTTGCACCCGTCGTGATCCGAATTGCAACGTGTTTGGTGGACATTACAGTGACGTGCACAGCGTTAGTGCATACAACATAAAATTGGTCTTATTGAATTTGAATTTCTCACTACAGGCCGTATTTCATGTTCCGCCCGGGTCTTCTGCCACCAGGCATATGTTTTACGTTTACGCTCCCGATCTGGCAGAACCGGTCTGGTTAAGAGTCCACTCTGGTGCGATGCGCTGCTGCGATCTGCTAACCAGTACGGATCCATCTACCAGTGTACAGGCCTTTCCGGTAAGTAAGACTGCACCGGCGGACAGCTCTGGAATGATCGCTTTACGAACTCAACAGCAAAATCGAGTACGGCGTATCAGAGGGATACTCTTGCTTCGATTCTCTCAAGACCGACGTGCCGGCCGGTACGTCCTTAAGGCTCGTTGGCCAGAACTACAGCGGGCGGGTGGGCCCACCTCAAGTTGGTCCGGTGTGGCTAATTTGATTATCCCCCTTTACCCAATTCCTACTTATGTGGGTGCTATGGGTAGCGATGAAGTACTCTTCACTAACCGGGGACGATGTCGGAATGAAATTCTCAAATGCGCCATTGTAGCTCGTTACGGCAGTGGCTTGTCGGTCAACAGCACTGGGTTCCGTCCTGTCAGAGTGCATCGACCAGGGAGTATTACACGTATTGAGACAGGCGACCGACGCCACAATACTCAGGAATTAGGATCTCCAGGAGCGACAGCCTATCCCCACTCCGAATACGGGGGTCATGGCTACCTCGTCATCGACCACCTTGCGAGTACTGTACTAGAGCCAGGAGAGTCCGGTTTGTTGCGTCTGCTTCTGATTGCGGGCCTAGGTTTACTGACTGAAGACGAGACGCACAATCTGCGGTTGGCGTGGTTAAAATCGGGTTGGTACCCCTCGACAGAGCTCTTTCCTGTGTTGGCTCGATCAGGTATGCATTTTCGGCAGCTAGGATCCCTTCCGGGCTTAATAGATAGTTGCCCCGGAATAAGTCATTTTCGTTGGAGTTCATCCAAGGAGGCCCCGGTCCCTTGGGATTATGCATCACTCTGGCATGTACGGACTTATCGCGTGTGGCGACTTGGATCTCTTTCCTCCTGGTGGCTGCGGCATTCCGTCGGAAGGGTGACTGCATCAGCGACTGCACGATGCACGTCCCTTAGGGGTGCGCCCTACCGTTTCGACGGTTTAGAAGTACGGCTTGTGCCTCCAAGACGTCCGGCTCGATTGGTGGCACAGGTGGGTGTTATCTGGCCGACCACGGGTGCCTACACGGTAGAGGGTGACAAGTCTCGACTCCCACGCAATCTATGTATGTGGAACCGAACTAAACAAGACACGAAGCTTTCCTCGATTAAAGTCATATTACTTTCCGCCGCTGCCGGCCGTCCGAACGCCTTGGTTTACGTATCGCTGGGGAAGTGGTGGCGTCGTGATCCTAATTCGTATAGATTTTGTGCTTATGCTGAACGTAAAATCTGCGCTGCATTTGACTACCGGCTCAGTATGTCCGGTGGCAAATCTCAGCGGCAGACCAACTCTCGGTGCGGAAGGACCGTTTTAACAATGATATTTCGGCTTATACTGATCCTCACGCTCGGAAAATGCACGATGTGTGCTTGCAACAAGCCGGACCGACCGTCGATGTTTCAGCTAACCCCGCACTTTCAAAATCTGTTGATATCATTCCCACGGTCCCGCCCATCAATGGGTAATCGCCCGAGCTTAAGCTGCTCGTGCCAAGCACCCGTTATGACTATCTGGGTGTCTTCGTTAGCAATATGTTTATTTTGCTTTGGCCAAGGTTCCGAATTCTATCCCCTGGCGTCGGCGGAAACATCCCCGGACGATGTCTATAGCGCTCACAGAACATACACGAGCGGAGTCTGTACGGTCCTCTTAATGAAAGTTCTTCGGCAATCTCCGCCACTCGTCTCGTGGTGGTACCGGGCTCAGATTACATGGGGGTGTAGTGGCTGGACTACGTGCAAGGCCCACGTAAAGGAAAAGTGGTACCTCCAAAATGGTGCGCTAGGGTTGCAGATAATTGACCCCACTCCTTTACTAATATACTCCCCGCGGCCCTTGCTAATCTGGAAAATGGCCGTGGGCCTGTATAAGTACAGCTCACAGCATCAAACCACCAGCGTTGCCTTCGGACTGTTTCTCCTGCCTGATCTTGAGGCGTACAACTTTTACCCGGAGTCCTGTGGTCCGAGTTCATATCCTATAACAATGGAGGATACACGTACCCCCGATACTCAGCTAGCGCCACGAGTGCAGTCTTACCAGACCTACCACCAACGAGGCCCGATCAGCCTCATCACGGGTATTTATATATTCTCCAATGCTAGTTATGACTTTGTGTGGCATATATTGTACACTTCGTCGTCCGGTTCAGGGAGTCCCGTACGTGTTCATCATTCTGCTCTAGACTCGCGGTACCGAGCATGTCTTGATAGCAACACCTCTGAACTATCACTGCCATCTACCTGCTCAAGGACGCAGGGTGACCCTGCACGCCATAATAACGTTCGCGGAATTGCCATGGCGACTGGTTACTGTGTAGTTACTCCACTATGGCTAGTAACAAGTTTCCGGCCACCAAAGGAGGCTGCCCGGATAGGGGAAGAATATGGCATATTTACGTTGATATTAGAATTCTGGTTGATGCCGCGTGCGTTGATGCGTTCCAACAGTATCATCGACTTCTTTCTGGCAACAGCAATTTTCACAACCCGAGAACAAATCCCAAAAGGTAAATGCAAACTCGCCACTCCATGGTGTTCTGACCATAGTTATTCAAGACCGCCTAATTGCCAAAGGCACACTCAGTCAATGTTACATGAAACTCCAGTTTTTGTGCGAAGGGATACAGGTATCACAATGGCGGAATACCGGACCGCCGAGCACGTTGGACCCGCGTACCCCTGGCTAAGCCCAGCTAACTGTTCCCCACCGTCCGCTGCGCATGGCCCAGAGGCACACGGGCTCAGACGCTCAGACCTGAGCTGCACCGGCGTACTCCGGCGTCTCATATACAAAATTATAAATGTATGGCAGGTCCGTGTTTCAAAAAGTCGTAACAGTAGCGCAAGTACAATGAGGGGGTCACGCAAATGTCGCGCTCTCTGCAGTAAAACACAGGCCGTAACGTCCCTGGGCAGTATTTACCGCCTAGAACTTCGTTCATTAGTGCAACATTGGCCCACCCCTCTCAGAATAGGTGAGCGCTCCGCGCGTTTACCTAATTGGATTGTACGGATAGTGAGGACTTCGCGGAAAAATAAACAAATAACTCTTAATAAACTTCCCCCGCTCCGTGCCTTAAGTACCGAAAACCACAAAACGCTTAGAGCGAGACCAAATCGACAACGTACCGCACAAGATGGGAGGACAATCAGCCCTGGCGGTCGTCGACAAGGGTTTCAACTTACGTGTGGGCGGAGACTTTATATTCCATCCGGATACTCACTTTCTTTGATCTGGCGGTGTAAGACTCAAGTCCTCACTCGCCGTACACGGTCCTTAGAAGCTGCGTCATGGCCGCGGATAGAAACGGCAGAATCAGTTTCGGCGCCCATGGGTCCGCTAACCCCCTCCATTCTAAAAGCCGAAGGGGGATGGCGGGTCATACTCCCTTACAGTTCTCATTCTGAACACGGCGTCGGGGGCCGCCCCTCGAAAGAAGTTTTGACGCGGACAAGGGGCGAGTCAGGGCGGCAATGTGCCAACGACAGTCGGGAAGCCTACGGTAATTCAGACCTACGGGATCACATAGCTTTCGACTCTATAGAAAATGGTTGCAACCCCAGGAAGACACGAGCCCCGTCAAAGCAGCTTAATGGGCAGAACACCTGGTTCGGTAGGGAGATATATCCGGGTAACTTAGGCTTTCGGACACACGTGCTAATAAAAGAAAGCCGACTGGATTGGCAGGCGGCCACGCAGCTGCTGGCAGATCTTTTATTAATGAATAATAGTGAAGGGTTAGTTCCTGGAATCTCACCCATGTGGGCCCATAACGTACGTTGCCTACGACAAGCGATGCAGAGTCGAGTGGCTTATTGCCTCCAGTGGTATTTACAACGTCGGCTGATCCTTGGGGGGGATTCTTTTTATTTAGTATGCTTTACTCGAGCGCTGAACCTCCTAAGCTGTCCAGTGGCTTCAACGCAAGTGATCTGTGATGTGCTCCCTGAAGGATGCCAACTCCCTCCTGCGCCACCTCGGCCAGATACAAGTGACCGCAGTTTATACTATTGCCTGGACGCGGTAGAATCATGGCGCCGATTGACAAAGCGGCCTGCATTGCCGAGCAGCAAAGTCCATCCGTCCCACATGAAATCTCTTCGGACACAGGGTTCTAAAGGGACGATAATCAGTCTGGATCCTGGGACGAGACCTACGTCCGGTCCGGTGGTTCCCGTTTTCCACGGATGGACCAATGGCTCTCTCTTTTCTTGTGAAAGCTTACGATGGCACCGAAGAATCCGCCGTGCGAATGGGAAGGCTTACTCGGTAGGAAACCCTACTCAACGCAAAGCCGACCTGGTGATATGGTTTCTAGACGAGGCGTATCCATTGTTGAGGTTTAGTTACATCGGCTGGGGGAATAAAGAACATCAACTCGGTTTCGAACTTCTCACCATCCCAATGTTGCTGGGAGGCGGGATTTCGCGCTCCCACAGCCGTAGCCTCCGGTTCGCGGTGGAAAGCTCCAAAATCAAGGGCAACTGTCAAACGACGCATGCCAAGCTTGCACCCCAGGAACATAGTGTCGAGCCACGGTCCTTAACTCACCGGTTAGTGCCGAAATTCAATCGGCGACTGTGCGCAGATGGTAACCGGCGGCTTGCTGTCGAAAACCAACAGCCCGGCGAAGTCACAACATATTGGCAACTCGGGTGGCTCTACACCTTATTGTTTCTGATGAATTACATGTCGGTCGCGGGCAGACGAGCTCCTCGCGCTAGCTGGGTCTCAAGTCAGAGCATCGGCTATAGCTTGCTGTTCGTCCGTCGATCTATACAGTCCCTTAAAGGCGTATGTTTTCCGAGTCAATACTCTGCCAAGGCAAGCCTAGGAGTTATGGTTCCTCTGCCGGAACAGAATTTAGTTGATGCTTCCTTAGCTCCCCATCGACTATGGCCTCCCGGAAGTACGGAATCTATGCAATCTGTTCTGGAGAATCAAGTGAGTGACGTTTCGACGTTGCATGCACTCGTCCTCTCACTTCTTTGGCGACAACCACTCCAACGAATTCACCCTGCATCTATGGACAAGACGCTGGCTAAGGTATACGCGGTTCAATGGCGGGGAAGTATCCCGATAGTGATCCAAGGATATGCGCTGCCAACGGCTGCTCGACGCCCACCATCGGCTAATGGTAAATCTACCTTACCGTTGAAAGCAAGGCTGCCTTACGGGGATTTTGTCCCCTACGGCCGGATCCGTTTAGAGTATGTCCAGTGCCGTAACTGGGGCTTACTCCCTGTAGGGGGCCTGGAACGCAGTTTGCCCATCCGTACACCTCAAGGGCGAGTTGGACTAATAGGCAACGGCATCCTGACGTTTCCCAAGTACACAGTTAAGTATCCCGCATCTATGTTAGATCCTTTTGGGAGTTCGATTCGGGCAGCCGGGATCACACGCGTCGTTCACGAAAAGATCAGTCAACCTATGACGGAATCGTATATGAGTTTGCACAGAGGTCGCTCTGGGGTCGGGGTCTGGCGCTTTTTATCAATTCTCCCATCACGGCTATCTCGTTTATTAGCCAACCTGACGCAGAGCTTAAATTACTCGCAGGGGGCTAGCGTACCATGCGCAGCAATCCTGTCTGGGCAGCCTGCTCGCAGTTTCCCACATGTACCCTTCCTCTTCCATAATGATCGACGATCGAAAGTATCCCGTCCTTTACTGTTACGTAGTCATAATCCTAGGTTACAGGTGTCCGGTGAGCCTATGTTACAGCTACGCCTCTTCGCCACCCTTACTTGTGAAATCAAGCGTGCATACCTCACTTTCGGTTCCATGCTTACACTTCCTCGTGTCGGCTTTAAGGGATTGAACAGAACATATCCAACCACTCTCAACACACCCCCAGAGAGATCGGGTTGCTTGGACTTTCTCTGTCGAGTAGGCTTCCGGAAGCCGTCGTGCCGCAACTCCGTTCATCATAAATCTTCTTGTACCCGTCTGTCAGGTCCAGTCGCTGCCGTCAGGTCAATTGATTCGAATTCTCGGAACGGCTCATTTTTGCGGGCATACTTTTCACTACTATTTGTAGGGCAGAACAATAGCAACGAAGCGTGTGCATTAATCAGTCGAGACCGAAACACAAATATTGGGCTAGACGGATTCTGTGTCCTCCCCGGTCCTGGATCTCTCGAAACGCGCTGCGGAGAACGCACAAGACCACACTCAAAGGAGTATAAACGTCCGCTTTTCTGCTGTTCGCGTCGACGCTACAGTGATAGAAACGGAGGGGCAACTCGGCATTACACCGTGGGTTATTCGAGACTAACGTCGTTTTATGTAGGGGTGTGGGTAATCATCTACCGCTCGTGGATTCGAGTCCGTACACTCAATTCCAGGGGCAGCGTAGATCCCGAATGTTGTGGATTGCCAGATTCATTTTCGCTGGCCTGGGATGGGTCAATGCATTTAACGCATCTACCGCTGATTGTGCCTGGGCTTGTTGCCGTATCATACCGGCGTGTGCCGTCTTCGCGTGTGAGAAGCGCTTCGAGACGCGATATTGAGTGGGGCCCGTTGACTACAGGACTATACGGTCTATCGAACAATTATCCACGGATGCTTTCTAACGAATCTTTTAGACTCGATAAAAGTCACTTTATTCAACACGACCCGTCTTATTGCTGGCCCACTAGAGGGTTTTATAGGCATGAGTTCGACCGAAAGTCTTATCAGGGATATGAGGATTTGGCTGCGCGTCTAGTGTTAGTAGCCTGCAAGTCGTTTTACCCCTTGAGCAAAAGTACCTGGACCGCATACATGGTCTCTTACAGCGAAAACTGGTTAACAAGGAATAGCCGTCCGGGAACCAAACATACATATAGTGTCTCGTCCATCTCTATGACTTCTTCATCTGAACCCCACGAAGCTGTAATACAGCAGCCCATAACCGCTTACGCAGCGCAGAGGCCTACTGGAAATGCGGGTAGCAGCGTGAACCATGAATTCTTTACAAAACCCACCTGCGACCGTATCAGTGCAGCCTCAGCACGTGTGGCGACTGCTTTAGGCCGCCGTATCGATACCTTGTTATTCGCGAATCAACAATCAACCCTTGCCCCTGGTCAGGACAGATCTCGGGGGACATCGACACGCGCCCGGATAAGTCTTACGTATCTCGCGTCCTCAAATCAACTGGATGGCGGCAGGCTCCAGACCACAGTAACCGCGTACTGTCCGCGTACACCGAAGAAGCCCGGGGGCGGTCACTATGTTAACTCTTGTCTGATGCCGGTAATACACTATCTCCAAGGATTACAGTTTACCCATACCCGAGTCACAGGTCCATTAAAGTCTTACTCTAGCGTGCACTCCACGTCACGCCAAGAATACTTCTTTTCTACCGCGAGGCTTATCCGGCTTTCCCAGGAGCGCCTTGCAGCCCCGATACCCTTAGTCTTTTTCGTAAGAAGCTTCCCTGCTGGTAGAATACAAGTCACACCAGACTCCCTCCGGCTGACTGTTTTGTTCGAACGTCAGGACATGCTCCCATTCGTTCTTGCACGCCTCATCTTCCTGATGGGAACATGCCCCATCCTGCGTGTTTGTCGCAAAGCGGGAACCACATCCACCCAAGGGGCATGCCGATCCACACACGCTCAAATCACGCGCCAGAGAAGGATACAAGAGCCTCAGGATAAATTCGTAGACCATTTCGCCGGGACCTTCAGATTTATGCTCGACCGGTGTCCGTTGCAACGTCGCCCTATGCCAGCAGGTTTAGTTATCTTCGTTCTAAATGTACTAACTGCCAAGCGAGTTAATTGCCTTACCAGTCCTCCTCTGCAGGAAGGCTTCATTCTTATCTGTGGAGGCCGTTGCGAAAGTCTAGGGCCCGGTATAAACATGTGTTGCCTACCCAGGAGAACACACAAATATCTCCGGCTCCGTTACCGTAATGTATTATTAAAAACTGTTGGAGTGAAGAGTAGAGTTATAAATATCTCGCATGCGTGTCACTGGCACCGTGACTGTCTAACGTTCGCTAGCCGAATACAGCCCGAAGGTCTCCTCATGTTCCGTCGACAGGCCTTCAAGATCCATGGTTATTGTATTAAGCCAGAATTTGGCAGCTGGTCCTATCGGGTCGCTCGTGGTCAGACATTGGTTGGGCATACCTCGGCACAGTCCGTGTCTGGCACCGCTCGAAGTGTTTGTGGACCGATCAAGAATGTAAAGCACTTGCAATGGCTAAGACTTGGAGGCATAGGATATCAGGAGCGAAAAAAGAAGGGAGATTGTACGATGGCCAGGACCGAGTTATGCAGCTCACGGATGAGTATTAGGTCAAACAACTCAGCGTTCGGCGTAACCATGACGGCCCCGATCTATGACGTGATCAGACGACTCAATGAGGCCCTACCCAACAAACCGCTTGATTTTTATAAAAAGGAACCTATCCATCCCATAGAGGCGGGCATGGTCGTGAGTCCCCTACCATTAGATTCAGTCGTTTACACGACGATGGTAGACACGTTTATTATCGATATTAGCGCCACCGCCGTACCACACATCGCAGTAGGGCATTCAAATCGCTACCCTTATGAGAGGTGTGCAGGGAGTGTGCGTGGCGAAAATCATTCGGATGCTCTTTCTCGGATCACTTTTCCGCAGTACCAAAGATATCGCTTACTTGTACAGATCCGTATCGAGACAGTAAGCACGTTCGATCACATCCCCAATCAGTTTATTGTGGGTCTCGGTGCACACTTCATTACGGCGACTCAGCGCTCGGTTGACGTCGTAATTTTGGATGGTGAGTATATGCGCCTGCTTGATTCCAATTGCGCCCGAGTTCACTCTTTTTTGCGCCCCCTAAAGGCTGCTACGCCCAAGCAGGACGATTCGGATATTGCAACCGCGCGAATGTCTCGTTCTATATGCAGCTCCACCCTCGTTATCGTCAATGAAGCGTTGCAAGAAGGTTCGAACAAGCAGGACAAGAAGAATTTGCGTAGCGCCATGGTAGGTATGTTCGTGCCCCGTTTTACTAAATACGGTCTTGGTAGTGCATATTCAACCAGCATGTCCGTACGCAGCATACTTTTTTATCGCGAACTTAGGCAAGTCAACAGGATCCTAGTCCGTTCACATAGCCAAGTAGGACTGTGGCGACAAAGTTTTTGTGACAAGTTAGTATATATGGCGCGGTCACAGTGTCACACCAAGAGCAACATAAAAGCGCACAGTATAGATTGCCCCGATAGACCAAGAGCGATAGGATTCTGGCACACCGAGCTTATGAGAAAAGTAGCCTCATGTTGCCCATTCATAATTAGGTCCGGCAGACCAAGTAATGTTGCTCAGACGATGCAATTTCCTCCATGCCACTTTTACTGCATTGTATCGGCAAGAGGAGCTACAGCCACGGTAAATTATCTACAGTTCGGGGACTGGGTTTTGTGTAATTTGACACGAAGGGTTGACGTATCCGACAAAGCATCTGCTAGATCGCTCGGGAGCATTCATGGTGTACCTGAAAGAAGTTTCAGTTCTAAAGCATCCACTTCTCGCATATGCGTTCCACTCAACCCGTGGGGATTTAGCACTCGGTTGCAAAGGGAGACTTGCCCTGATAGCTTAAGGTCGCTCCCATCCGCTCGAAAGGCCGGCTACTTCTTTAGGTTCCTAGTGGGAACGCAATTTAACATACAAACGTTCCCTTGCGGTAGGTACTCATATTTCGGTCAAACTTTAAACTATTTAACGGCACGACAGGACCTCGGACCAAGCGTCCAACGATTAATCATTGCATTATTGCGTCCTGTAAACTCGACCTGTGCAGGTGGCCGGTTCACTGTAAGTTTAGATGCGCCACACCTCCTATGTTGTCCAGGGCTGAATGGCGCCCACTTGCTTGATGCCTGTGCTTCGCCTTCCCAATTTCCGCCGGGACGGTGCCGTCAGGAGCCGGCTGTTCTGTCGCTTGATCGGGACCCGGCTAGATTGGCCGCAGGGGCGAATGCACTATCCTACACGCCGCGCTTAACTGCAGCTAGCCAAACCAATAAGTGGGAACCCGGTTATACCTTCATGGTAAAATCGCATCTAGAGGCAAAGGGTCGAGCAATCATTGTACACGAGCCTGCTTGGTGCAGACGAGCATATATCCTGTCACCCGTATCCGCTAAACTGTTTTATCGGCCGACGAAGATCGTAAAGATTCCCCTTGAACCCAGGGGTGCAGCTACGAACTCGTGCTCGTTTCGGGTCGTGCTTCCCACATGGGAATGGGGCGAACAATCTCAGCAGGATCGCCAACCTGCTCCCGGGTATCTTGTACCTCCCGTGTCGTGCATGGTGCAAATTCAAGTTTTCGTCCGAAATAGACGCTGCAGTAATGCCGACGCTCCATCAAGCCATCGAGCCATCACTCAAGGGGCACCGACCACTCGTAGGATCTTCCTTCCGTGCACTATGGCCCTGTCCCGCCCCCCTATTTTCGTGATTTGGGGGCAACACTTAATGTCGATCTACCAAAAGACCCGGGCTCGTCATAAAAGCTTCCGAGCACTTATGATGGACTATGCACTCCTGCGCCAGCCACCCGTCGTCGCGTCGCGCACGGTATCTCTTGCACCTTTTATCTGGGCAAGTAGGGTACACGTCATTCGGAAAAAGCACGGGTCCCACAGACTTGCAAACGGATTCAAGCTCAAACAGAATTTGACTCGTGCAACTCGCTTGTCCAACGCCGAACCTAATCCTTGCAAGAAAGCATGTTCCACCTCGCTCCCAGTGACTAGCCAATGTTATATTTCGACACGGCCACCCATCAGTCCAGAACCGCGGGAAGACCATGGAGGGTCAGGTACGTCCCAGACGCCATTTCATATCGGGGTGTTGACTGACACAGAAGGAGCGAACCTGCCTCGGTTGTCGACCAACCGGTGGAACGCCTTTGATCGAAGCCACCGGTGCTTACAGGATACCATAGATATAACGTCCTGGTGTGACGGTACTGCTCCTCCTAACACAGAGTCGGAAAGTATCCATCAAACTTGCTCGCTGCTAACTTTTTTCCCGCCTTCTCCCCAAAGATTCTCGAGCTCCCACAGCGAGTACCTAGGTTCCGTAAGTACTTCAGTACTGGCGCCGATTATGCGTTCGTCCGCAATGAGTGCTTATCCGGTACTTACCTTGATTAGACATATCTTTCTTGTGGCCCGTAAACCCGCCATGTCTGTGGGGGTCTGCTCGTATAGCTACAGTCTTATGCCATGTAACACAATCTCTCATCTACGACCCGTATACGGGCAATTCCAACATAGATGGAACCTATGGGCGAATCGAGGGGTAGGAGTAGCTCCGATGCGACTAAACCTTCGAGTCTCGTTCGGCGCAGTTAAATCTATTGTGGAGGGTGGATTGTGCCATATGCATGTACTTAAGGCCTCGGAGGGATCAGCAAGGAGACGAGAATGGCACCAATGCACAGTCGTGGTTCCTCCCGGTCGGTACCGATTCCCTAAAATACCTGATACACCTTCGGCGGCACATCCCGCCGGCAAAATCGGAGAATCTATTTTACTTGTTCAACTAAGAACGGGTTCGATCGCACCATGGTGCCTAAATTGTCAGGATCTCTCGATCGACAACATTAAATCACTCGTACGCTACTTTGATTATCTAATTCGCCATACCTTGAATCAGAGCCGTAGGTTGAGGCGATGCGTAGGCAGACATAGACGTATGATTCACGGGCCCAGGTGCCTTTTCCAAGGTGGAAGGTCCTCGTCCTGCGCTGTAATTTTGCAGCCACATCTAGCCACCTCTGTTGCTAGGTCGCGCACACCAGTCGGGAGGAAGTCGATGCTCTTTTCGACGGAACCTAGAATTCCCGATATCTATGGCCAACCTCACAGAACGACGCCCGATACAGAAAATCCAAGGTACAGTCTGGGAGCAATATGCCGTAGCAAAGATGAGGGAATTACATGCTACCGGCCTGGCGATTTTCTTTCTGGCTTTACTGTTGGGGTGATCGATGTCCTCATCAGTCGCGTTGAAAGTAATCGTGCCATTTCGATCGCCTTGCAGGGCGCTTTCTTATCCTCGCTAATGACAGGAGCTCTATCAATTTCGCTAGGTCTTTTTGCCCAACGACCTGTAAGGTCGCGGCTCGACTTTGGTGCCGTAAGTCTTGGTCCAATGTTACTAGTTATAACCATAAGCACGACAGAGCGGCGATTCGCAGCGCAGAGTAGCTGGTTGATCGAAGTGCTGGAGACGTACTGTGCCGACAACCTAGCAGAACACATATGGGGATCAGCATTTGAAGAGGGGCGTGCAACAAACGCTATATGGAGAAGTTCTCTGAGATACTATGAGTCAGACATTCATGTTTTCAACCGGAACACTATAATCGGACACACGACCTCGATGTTCATTACAGTCGTTCAACTAGATACGAGGGCTAGGCACTCTTTCAGGAGGGGGCAGTCTTGGGAAATACAGTTTCGCAATTCTCGATCAGCGCTCAGTGTGGTTGCGTTGATTGGTGTCCGTGCAGTCTTAGATGTCTGCGGTGTCACCTATACCCTTGACAAAACTCCCCGTTACACCTCAGCGTTAACCGTTCGGCGTCTATATTCACGCTATCAGCTTCGCGCTAGTAGACCTGGTAACAGTATAACCTCGCGCTGCGGATCATGTTGCTACACGCCTGAAAATATTGCCAGCAGAACGCCGTTCCAAGCGAGGGTTACTGCGACGACCCGATCGGACGGGCGTTCAAACCATCTAATGGCTATTTCCTTGAACAGTGTTACAGTCCGTCGCTGCCTGGAGTGGATCTGCCTTATCTTCTTTGGACGGATAATAGTTGCCTCCAGCTTTCATCCTCCGCTTTCAGTACGTAGATTGATGGTTCGCAGTTATACTCAGTACCCTGATTTGATTATCCTAGAGGTGCACAATTTGCGGTTTACAGTATCTCTCACCCTTCGCACCATCACGTCTTCTGTTGTCGACAAGACTGATGTCGTGCGTGGGCTAAATATCTATCACAGTTATAAAGTCTTCTTATGTAGACGTGTAATAGATCTGACTCTGTTTATTGCCAAGCTTATGGTTCTGGCATTCTTAACTACACGTAGGGTGAAGCAAGAAACGAGGAGGTGTTTGAAAGAAGCCCACAAAATAACACTATTCATCCTATTGCCTTCTAATCCTGCTAGATTGGTCCGTCGAGCAGGAATACATCAACGCCACCCGTTAAAGTTGAGCCGGACGCTATCGGTTTGCGCAATAAGAAATCACATACCACGCGAAGGTATAGACGAGTTCGACCCCCCGCTGAGCGACTGGGAAAGCAGGCGTTTCGGGTGCCCAGATATGAGACTTGGTCCTTGGCTATACCAGGCCCTACCGGAGGGTCCGTCACAACTGAGGCGATGTACTGGGCCACAAGTACCCAAGTGCCTTACTCGTGAGGTGTTGTGTGACTCGGTAATCCGGACATACAGTAAATGCGCGCCGTTGTCAGGGGGGACCGCATGCACGCAATTCAGATGCTCATCTGGAAGTACGTGGTGGATTATGGCCCCCCGCTCGACCGGCCCGGATAAGTTTCCTAGGGTCGCGATTCCTCCGAGTATCGACTGTAAAGTTAGTTTCGAGCGCCGCACGTGTCCGTCCGACGCTTCGAACTTTCCATCAACAGTACAGCATCATCCACATTATTACCCCCGGAATGTTTGCGCACTCACTTTCCCGCGACGCTGGGACCTGAAAGGTTGTTCATCTGGAAAGCGGAGCCCATTTATGTTCGAAACTATTGCTAGTTGCACCTCCTGGGTGTTCCCGAAATGTGTACACGCACCGGATACTGGCACTGCTGAAGGCTGCAGCCGGCGTCGAGCGGGCACACGCTGTTGTATCGTAAGTTTCCTCGCCTCCTGCTTGGGCACGGTTACATCGCCACAAAACACATTCCCTTCTGGCGATACGTCGCCGCAAGGACGGAGGAAATCCATTTCTTTATCGATGACAGCAACGACACCTTTTGATGGGAACTTTATCATCACCGCTATTATCCTGGCGATATTATTCTGTCTCGTGCGCATCGCTGGGTTACCGGCCGACTCGACAGACAAAACGGGACCCCTTTTCAAGGTTCTGACACTCCCTTCTATTGTGTTCTACAGAATGAGGAAACGATTCACCGTCACATTGGTTCACACTGGTGTGCATCTTGGGGCCGCCAGGGTCATTATACCTAGTCCTTCTGATCCTGATAGCGATGGGCTCGCGCTGGCCTCACAACTCGTGCAGGCCTGGCTAGGGCCCGCAAGGGGACCTGATTTTAGTTCCTCTATATGGCTTCGCGGGAGAACCGTAAGAGAACAAAATGTTAACTACTGGGTGGCGAGTCGCTCGGGGAAATTTTTTCAATATTATGTGGTCTCATTTTGGGTCATTTGTTTCAAACAACACATCTCTATAAAACCTTCCGTGATTATTCTAAACACGCACTCAGGACAGAAGCTAATCTGCTCTGACCATCGCGATCTGCCTCCCCCAGATTGGCCTACAGTCACTCTAGCGCAAAACTTTAGGTCAGCCAGGCACTCCGAGAGAAAAGCATGGCGCGCGGATTGGGAGGCAAGGCACCATAGACTTATTATGCAGCATGTCTCCGGTTCGACAAACATAGCGTTGCGTGGGTATGTGTATTCACACGCAAGCCCATGGTACCACAGCGAAGTCTCTACTATTTTGGTCCCTCATGATATCGTAATAGTCACCACTGGTATTGCGGTAGACCTGCCATTGCCGCTTATCTCGTCGGCCCCAACGGAACCAATAATCGGGATAACGTGGACCAAAAGCTCGTGGCATTCCTGGTCGGATAGTCGACTGGTGCTATTAAGAAGCAGGGAATACCCCGACGTTACGCTTACGGAACAGAAACAAGAGACACAGAAACGCAGGGCTCTTCCGCTTGCGAGATCAGTTTATCTTATATTGGCGACCTCCTCGCATCGCAGCACGCAGGTAAGGTCCCACAAGTTCCGCTTCATAGTACGGCCGCAAGATATTAGGACTTACTGTGTCACCTATCGTGCTAATGAGTTGGTTGGTGAACGGCATTTCTATGCGTGCGTCAAGATATCGAGCTGTAATGCGCTACCCTGCTTCGGGTGGCAGAAAGAACGCTCCGTTCATAGTGAAGACGTCTGCTCACCAATGGCAATAATATTTGCTAGCGCCAAAGACCAATCTGCGCTTTTACCCATCCCAGGTGACAACCTCATTTCAGGGCCCAGCTCGCCGCACCTAATAATCCAATCTTATAAGAGAGGTACCCCCACTAGCCGCAACCATAGCTATTTTTCACGTTATGCAGCACTAGGGGGCCTGCGCGGTCATGATTTCCGTATTCGCACTTCTATATGGCAACGGCCATGTGGCTCGCGTGAAATACATACACGAAGCTTGGTGCTAACCCCCTCTGTTAACTTCGGTCTCGTAGCACCGCCAAAACATCCACGCAGGGAGAGCCAGCCAGCCTCCGGGAGGACCAGGTTCAGCAATCGTTACCGCTGGCATGGAAGGCTAGATCGCGTGACTAGCCCACGTCTAGCCCCTGCGCGACAGAGCCCCCCTAGGCTGCCAACTTTGTACCACTGTGATTGCACCCGCGACACAGATTCCCCTGACCTGGGACACTTCACCCTAGCCTACGCTAGTGATAGGTTTCCCTCAGGGTCTTACGCCCGACTTAGTACAGCGTTCGTCCTCAGTGCGGGGCGTTTACGTTATTCCACCCAGCAGTGGCGGCCGAGAGGTCATGAGCGTAACGCCACTGACCTTCCTTCGAAACCTCTGAACTTCGAATTGTACATCTCACTCGGGTCCTTCCACCTTAACCCTATCAACGCAGAGGTTCAGAGAAGGAAAGAACGTGCGCTAAAATATTTCCCTCTGGATTCAACTCTACCGAATTCAGTGTGGGTCACTAAAGATTATCGTCCGTATATGAACCCGCGGATCGCACATATCGTACAGCAGGAACCCTTCCTAAAAACGTTTGAGTATCGAGGACATCAACTGGTTGGTATCGCGTGGCTTCCTTACGCACTAAAGGGGACTCACTCGAGCCATAATCCTTTGTATCCCCGCTGCCTGAGATCTCAACTCTCCTCTAACCGGGTACGCACGACGTCTGGGAGATCATGGGCAAGTGCTGGAATTAAATCAATACTCTCTGTCCGGGGCCCATCTGACTTTGACCTTGAGCATGTCTTGTTGGCCGAATCGAGTAATACCTCTCTGGATCCAGGTTTAATTAACGTCCCGAGCGAGAAAAACCATTCGGATACAACGCATGTCACTTTCCATAAGGCGCGGGCTATTCCGAGAAGTTGTTTCGAAGAGACGAACACACCCATTCGAGACCGAGCTAACATTACGTTCTCTTCCGACCGATTAGCAGACTTACGGGAAGCTGTTGCAGCCGACAAGTGCATACAGGGCCCGCGCCGCCTGAACTCAGATGCGATTTATGGAAACCATTCGTACGAATGCGGCTCCGTCAGACCAGGGATCCCAAGGTCACTCGTGCACTATAATTGTCAATTCCAGTTAGATCTTGGATCCGGGGTCGTCAGCAAGGAGTTTGTCGTATCAGAGAATATCGCCCATATACCCCCTCACGCAGCTACGTCTGATCAGCGCGTCACCGCACTTGATGGCCGTTCACGAGATCGTCATTTCGGTATCAACACTAAGCCGATACCGCGATATGGGTTGGTGCCGCAAGCTTCCCCGACTGTTCAGACTGCAACACTCTTTCTGGCATACCAGCAAACTTGGGGCGCAACGGCCATTACTGATCAGGCCGGTTGCATTTATATAAACATGAGCTACCGCGCTGCTAGCCCACTCCCCGGGATAGCTCGGACTACTACTTGGAGCTGTTCAAAAGATCCTGGCGGGACTACGTCACGGGTCGCCATGCATCTATTTTCAGAGTGCGGGACTGTAGCTGCCGAAGACCAGAAGTATACCATCCCGTCTCCCCCTTTATGTAGGTCTTGCGAACACCACGCCACCTCGTACAAGCTAGCCTGGGCGCGTCAGGAGTGCATCCATGACATTCACGGTTCGGCCGCGCGATGTATCATCAGTAAAAGTTGGAGACTATATATTAAATTTTTTAGGCATGGAAAAGCAACGCCCGGAAAAACCACACTGAGAACGGGGTGGATAATAGAAAAAAGTAGACCCCCAACGCACGTCACCTCACACTTTATGCTGAGTCCGTTATTGAGCACGATTATGACAGAACGTATCGTGGAATTGGCGCTTAAGCATCGGCCGGGGTCGTCTTTCCCTACTCGAACCCCTATACTCTTCTCGTGTATACTCACTATATGGGACTGCCGCAACGTTTACTGGCAGGTTGTCGGTGAAATGAGCGCACTCTTACTGGGACTTCGAGTGAAGCGACATCTTCAAAACACCAAGTTCGGGAGATACACACTCAGCAAGCGAGTCGTTCTTGCGCATCCTGGCAAGGATTCTTGCCTCAAAGATCGTTGGGGACGATCAATCGGATCTCCTGTATGGTCTTCCTTGCATAGGAAATACTTTAGAAGACAATTACCGCCGGGCAGTTCAATTGAAACGGCTTATGCCGGACTCCGCTATACGATTAGTAGCTACCTACCATTCAATAAATGGGTTATACTGATCAGATTTGAGAGATCACGGCGCCGCCCGTCGGAGCTGCAACAGTCGTTTCTCTGGCACGGTGCCCAGACGATTCAATTTAGAGGTTGTTCCCGGCCTCTGGTTAAGAGGGTCACCTTAATCTGGGCGTGCTCAGTTCTCGCGTGCTTGCCGATACTACTATCGGGTTTCATACGCTACTCGATTAAGCCGTATTTATATCGAGTCAGGCAATACGAGTATTCACACCGTAGTGCCACAGCGAAGTCGTTGGAAGCGCCATTCAGACTAGACTCCATGGTCTGCCTATCTGCTGCACAACAAGTCCAATTAAGCGGGTCTCTCAAAGAAGTTAGAAGATGGGTGCGGGCCTTGCTGGCCAAGGTTGGTAAGTCGGCCGAACTGTGTCCCAGTGATTTGTACCCCATTCAACTATTGTGTCAACAATTAATAAGACGTGCATCTCGCGACACGACCAAATGGGCGCTCTACTGGTTCCCACGGTGCGGCGGTCAGAGTCTGGCGCTGAATGCAATCTCAGCGGGGTCTCAACACCGACTACTACGAAAATTGCTGAGACGGAGTTCTTGCAGGGTGGCTGGCAGACCTGCCTTGCCGCTCTTACAACCTCAAAATAAGGACCTCGCAAAAGGTCCGCGGGGCGTGCCAGTTAGCTCGGGCGATTGCGAGTTTGCTGATCATCGCAGGCATATCGTCGGCGCGTCTTTCCTTTCTAGTAAGGCACCGCATACTTCATGTCCTGAACCTCCCACTGGGTCGGGCCGAGACTTCCAAGGAACGACGTGCAGATTGGAGACTGTACTTAGTTTGGATGCATGCACACATGACACGGACCGCATGGCCAGACCAATCTACCGCAAGTGGCATTTTGAAGCGCTTTATCAAGTTACGGGTTTCGAACCAGGACTTCCTGTTCAGCAACATGCCTGCTCCGACCGTAGGAACGGGTTAGAGTACACTTTCCCTTGGGGGAAATCTTATCCTCAGACGATAACGCGCGTTGTTATCCCTTCTGTTCGTTTTCGAGTCGATCTAAAGCCGGCCCCGTGGGCGACGAATGGATCTTTGTGGCGCCCATCCTACGTTCTAGCGTGGGTGGGTGTAACTACATTCCCCGCCAGGCATGCCTACGCTCTTGCAGAGTCGATTTGGTTCGTAATATCGCTGACCCGACCTCATACTCCGATATCACTAACGTTTGGTAGGAGGCACTACATAACCCTTGTGGCTCCTATAGGCGGGTATACGCGGTTATGGTTGTACAAGGACCCAGCTTCACCGAAAGAGGTTGGGCTAATTCTCCACGACGACGCCCTTGAGACGAGGCTGATGTCTTGCACCGGACTGGCATCTGTTGGGGGATTGGTGACGTGGCATGTGGCATCGACATTTCAACCTCAACGGTTACCTAATACTAATGACCGCTCAACGGGGATAAGTAAAAGAAAATTTTTCGTTTTACCGCCTCACTACCCTGGTTACCCGTGTGAGTCAGGCTGCGGCATACATGAACGGGAAGGATGTATTGTACTCTGTTCCACTGCGATCCCGAAGTACCAATGTGGGTCAAAGAGGCATTCGGAGCAGCTCGGTGGAACTGACAATGGCGTAATCATGTTTGGGAACAGAGCATTGTCCATTCAGAAGAGTTTGCTATCTCCCAAGTTAGGCTCTAGAAGTAACCACGGTATATATTATCACTCGAGAAACCAGTCCATCGCAAGATGTGACAGAATGAGCGTCATCGAGCAAGGATACTTCCTTACAGTTCCTTTCCTGCCACAGACGACGCGCTATTCGGAGCAGACCAGTAGCAGCAAGCTGGGTTCGAATTACGGTGCTTTATTTTTATTCCGGGGTCCTTTTACGAGGCTCAGTTCTAAAGTTTCCTTCAAAACTCAATCACGATTCGTTGCAGTCCTAGCATTTATTTGCCAGACCGGAATAACAATTCCTGCTCGTGGAACTTGCAAGCAATTCGTCCCCCAAGAGGGGCGTGGAGTATCACCTTCCGGTGGAGGGGCAGCATTCCTGTCGACGCGTTGCTCTCCCTTGGCTACTGAAGGCTCAATATCGTCCGACGCTGGAAGCCCATCAGACTGTACACCACGAGCAGTAGATAAACTTTATGTTGTGATATCACTAGCTGGTACGCGCCTCGAGGGGTTATACAACAACTACGGCGAGGCTCTCAACTCCTGGATTAAACGATGTGTACCATATCGCCGAAATACGCACCGTTTTGGGTGCTTGTCCGTCCACAAAGTTCTCCGGCGAGCTTATGTGAACCGTTGCCAGTTGCAGGTTGTCGGTAAAGTCTTTAGGGTCCATGAGCCAACGACAGCGCGCATTCTTAAGCTTATCAGTCAGACTGAGTATTATAGCGTTGGGTTCCCAATCCCCTGGCATTGTGCACTTCTCCCGCCTGAATTTGCGATTCTTCCCCCAGAGCTGCTTCGTCATGCCTTCTCTCCTTCCCCACCGGCCGACTACGGCGCCACTTACGTCTTGGAAGACCTCCCTAAACTTACTTCCTTTGCCGTGGTAAAGCCTTGGAACCAGCCTACGCCCTACTACAATGGAAGAGCGGTAGAACCTCATATTGCGTTCTCTGTGCCTCAACTCGAATATATGCACACCCATAGTAACACAGCGACGTCTTGGTGTAAAACGAGTGGGGCATGGGTGCGTCGTCCCAAACGACCGACTCATATCAGATCCGATCCCTTGACTTTGCCACTTCGCGCAAAGCACACATTAGGAAGTCTGGTCGCGGGCTGCCCAGCACACATATGCGCCTCTTGCCTTAACCGGATATATGCGACGAGCTCGCAAACATGGAGACGTCAGGATGTGTCGATAGGTCGGGGAATACGTGAAGTGAGATGGGACTATTGGTCTTCTAAAGTGCGAGATCTATCTTGGTTACGTGTAGTGTCATTTTGGTCGTCATGGATATCCCCGGTAGGTGGCGTATCGGGTCCTGTGTCATCTCCTCCAAGAACCCCGATGGGGAACGGGTATTTTGCAAATGCAGTAATAAGTAACCATCCTATGATAGGCTCGTGGGGTGTCTTCTGCAGGAGGAACACTTCGGTGGCGTTGGGGCGTCGATCAACAAATGATGTTACACAGTACCCATATAACGCAACAGTTGCTAAGCATTGCGCCGGATTAACAGCCCTTGTTAAAGCTATATCCTCGTCTTCTTCGAGTACGCTAGAGACAAAGAGATCCGGGAATACTGAAGAGAATGGCACCGAGAAAAAAAAACGGGGTTCGGATTTGAAAATCATTTGTTTAGGAATTACGGCAGTACGCCTAGCCACGCTTCTCTGTCCCGTTGGACTCGGCCCACAATACAGTCCGGCAGTAATCATCTTTACTTTACCTAAGGCATGCCGAGTTGATGCGTTACAGACCGTCTTGATTACTGGACCTAGCACGGCCCTCTGGCAGGGACTGAACTCAATTCCGACGTATGTTACTTTCCAAAGGTACAGTAACAAACGAGCTGGCATCGTTACCAAATATGTCATTAATAGAGTGAGAAACAAGGGTCTATTCCGCGCGACCAATTTAAATAGCCTGGAGCAGGTCAATTTCAATATACAGGATCCTGGAAAGGACGGCCTGTCTTACGCCGGAAGTCGAGGTCAAAGACGAAGCATTCGAGGATTCCCGACGATATGGCATCTTGCACTGATCCGCCGTAGCCGGGTAGTACTTACGAAATTGGGTACTCCCCTAGAACTTGCTGCCCTTAAATCGCAAAAGAAGGCGCGAAGATCGTCGGTGTTTAGTCCAATGTTATATCTCCCTCCACCTTCACTCAGCCGGGCAACGTATGTACATGCACAGCGGCTGATTATGCCCCACGGAAAATCATGCCGGCGTAGATGTAGGACTGGAGGGGCAGGCTCGGCGACCGCGTATCTTACACAATCCCCGAAGCTTGCAAGCGAGCGAACTATTGGATACACGGGGTTGGCTTTTATGGTTCCAGTACGTCGGTTATTTATGGACGGCTGGCTATGTGGGTACGGATCCTCAGTCATGTGTACCGAGAGGCGTCAATGCCCCAATCTATTTTTATTGGCGCGGAAGGTTCAGCGGTACTGTCGGGAGCGACTTGCTGGCTCTTGCATGATGACGAGCCGTCGACGTTGCCTGTTCTATCCCGACATGTATAGTAGGAATTATCGAATGCTTACCTCGCGAGACTGTATCCAGAAGCTTCTCACGGACCGCCGCACCTCACGATCATTTGTCGCACTGTGTGTCAAGCCGTCGGGCTGTGGAATTGCGGGGGTGCGTTTCTTGAACGTCTGCCTCGCGTTCTGCCGGCCGGGAGTACCCCCTAGAGCCAATTGTGGGGATCCGGGATACCTGCGTTATACGCATGCTATCTGTCGTTACCAGAGGCCCAGATTAACTCTATACGTGTGCATTCCAGCCGTCTCAGTAAGGGCTCCCCCACAATGCGGCCTAGATCTGGTTTCAATAAAGAGCAAGATTTGGGAGCCCCGTCTTAGTTTAGGCCTCTACTCCATTAACTTGTTTTATCCTAGACGGCTGTTGTTTTTGATGTGTGAATCAACTCCCCCACCAGGCCGTCCGCGTCCAATGTTAATACCGTCCAATTATGTGGGACGGAATCTACCTCGGAATACGTCTACACACAATCTCACAACCTTTGGCAGGTCACCATTCTGGCTCTGTCAAGTACTCAAGCCCTTTCATACCTTAGAAGACTATCGGCAACAGTCCGGAAAAGTCGGCACCACATCTGATGCGTCAGCCCGACAGGTTAAACTTGGCATCTATGCTAGTACACTCTCCGCTCCGTCTAGTGGCGCCGCGCGTGAGATGAAGTGTGAGCGTCGAATAACTATTTCGCACTTGGGTATACTTTACGACGACGGAGCTTGTACCGTCGCCACGCGCGCCTATACACTCGGCGCGCCCCCCCCTAACGTCCGTCTCGTATGTGCCATGACACTCCCGTTTGATGGGGATTCATCGCTGGACCGAATCATTTTGGTCACTACGGTTCCTGATCGTAGTCGAAGAGTTTCATGCAAGAGACGCCTGTTCTGGCTCACCCCCACCCATATGCGATTTTGGGAACGGACGCACTACACTTATTTAGCATGGCCAGGCCTGCTTCCATGGTGCGAGTTAGGGTCCCTGACGTATTACCGAGTGAGAGAGGGCCTAGATCTGTTAAGATTTCGCAGCGAGATCCCTGTTAATAGTGGCCGTCGCCGAACCCAACGCAGCTTTATCCATGGAAGGTGGGTAGCCGCACAGCGACGATTACTGTCGTACCGGGACCTCTCACATTTCCGCGCTCTCCTCACGGTTTTCCACAAAGGGTTGTTACCGATAGATTCAGGCGCAGCACAAGACGTACGGACATGGCGACCCCTTCGTCTGGGGAGGACGCTTCCATTGAGTTGCGCGCGTATTCCAAGGACGCCTCGTATAAGTGAACGAAGATGGACGCTGGTGCTCGAACTACTTTATGAACTACAGTACACTCCTCACTGGGGTTTGACTTTACGGGCCCTACGATCACCAGGGTTGCCGTGTCTCCTTAGAGTTTCAAGCGTACTCAATGAAATGACTTGCGAGGCCCGGTCGTTCCTCCCCTTCCGGGTGGCCATGTTCGTCAATCTCGAGGGGCGTTCCCAGCTCTTGAGGGTTGCGTACCTCTTTACCCTGGCTACTAAGCCTGGCAATGGCAGTCCGGCCGTGTTAGATACTGACCCTTTTGTTATTACGTATCGGGACCCTCTAGTGCGCTACAGCCGTGTTTCTTTGATGCGGACTATAATAGCCGGGTACTGCGAGGGGGCACGCAGGTCCTTACAATTCTCAATAGTCGAACACTTGTCCCTGACAACCGCTCAGGTCGGAATCGTAGAACGCCTTATTGTCGTTCCACACCATTATGTGACCGTAAGGTGGATAGCTGGTAAAGTCACCTTATTTAACATAAAACTGAAAATAGGTCCTAAAACAATACGTGTGCGTTTTTACGTTGTTCCTATGTCTGAGCACTATAGCCGAGTGACACGAAATCCTGTCTTCGTCCTGCACAGATGGGTAACAACCGATCGAAGATCAAGTCACCCAAGTGGATCAGCAAGACCCTCTGTCGTAGGATGCGGTACATGGAGGCCGCGCGTAAAGTTCGCAATCCAAGCTTTCGGCGGTGATACTCAACGTGTTGATTTGACTTTACCTGGCGCTACAGCTCCGTGTAGTACGTTTTATGGGATATTTTCTGCCGCGTACGTCCACTTAACCGCGAAGATTCGATCTCGCACTACTTCACTAACTACGCGATTTTCAATGAAGAGCGTTCATACGAGGTGTAGAATTGTAGAGGGGGAAAAACGGATGGTGGTCGCATCTAGTCTAGGTAGCGACCCCGCCCCTACATCTCTACAGATTGGTCTTCATGCCCTCGTCGTCTGTGTCTGCGGGAGGTACGAGGGCCTGACTACCTCTGTGGCTGGGGCTGAAGGTAATTGGTCACAGTATTACCTCTTGGACTGGGCAACGCCAATCTGTACCACAATCAGTCCTACGACGTTGCGAGACGTAATAGAGGTTCATACGCTGCATGTGAACCGTAACGCTGGGGCCGTGCAGGCTAGCCGCTTACTATTCTCAACGCGTGGCTTCCGAATACGTACGGTACTTGAGGCAAGAACTCTTGATGTACTACTGGGTGGCACGTTCAAATTGGGTAAATGCCGAAGCGGTCCGGCTCTGCGCTCTAGTGGGCGTTGTCGTAAGGGACTTAGAGAACGTATCGGGAGCGGTTCGGCTCGCCCGGGTCTCTCCGCTATCGCTCTTTTTCGAACACGTCACTTTGCCATACTAGGGTTCAGAGCTAGTGGATGTATGGCTTGTCCTCTAGCGGGGGGTCTGATCTGTTCTTGTGTAGCATTTGGTGTAGTGGAAAAATACCGGAATCCCACACGCAAATCGAAGGTGAGTATACGCCCCAGCTTCCTTTCCTGTTGTGGTTTGTACCGGCTCTCACATAACCAGAATCGTCTTACGCACGCAGAATCGGGCGTCGACACTACCGAATACCAAAGCGGGTTAAGCTGGCGGTTCTACCCGGGTGCTCGGTTCTTTAATCATAAAAGGTGTAACCGAATTGACACTGGCTTCCGTGTTATTAGGTGCCCGGATTTCACGTCAAAATTGCGACGTAGGAAAAGTGAATTACCCCTCTTGCTTTCCCCCCACACCTCTGAATTAGTTTTTGTCTACATCAGGCCTGTACTCGGGTATCGTGTGTCGGTCAATTATTCTTTCAGACGACGACGCGCGAAAAAGGTAGATGAGATCCCGATTGCCTTCACTCTCATGACCGTTGAAGGGCCGGAGTTTACAGTAGCGACTCCTTCACTGAGGGACGCTCAGGGTTGGAGTATCTTACGACTGGCTTACCGTGAGAAGTCTCGTATCCCCAGCCTCACTCTGGGTACTTATGCTCGGGAGCCCCTGTGGCGGGGACTTGAATATAATACAATCTCCCAGTTAAATGCTGTCCGAATAGGTTCAGGTGTCCACGCAACATGTGCATCGACTATGACATCAGCCGGCATTAATTACGTGAGCCTGTTGGCCCTGAATGGTTACCAAGGTAGGTCCAGGGGCGGACGCGCAGGGTCAGCAATACCTCGAATCACCCGGGTTTCATTCCACGCGAGTGAATTATTGTCATTCTTCGTATGTACACGAGCTGAGGCCGATGCTAGATCTGGACGTAGATCGAAACAAGAGAAACCCTGCTCCCCACCGCGAAAACTTCGATACTCCCCTCCGGTCAGTAGGCACAACACCAGACGTGCTCCCCCCAACAGTTATATCCGTAATTTCAGCGTGAGAACACTAAAGGTAGCATCCTATTCTAGCAAAATGTGTCCTGCGTGTCACCTAGGGGCTTGGGTTTGCCCAGTGGCCTCAACTAGGAGTTCGTATGCTATGAATTTGACTTTTGGGGATTTGAACCGATGTCCTAGTGCCCCAAAAGCGCAGCCTCTGTCCGGGGATTCGGTTAGGTGCCAT'
p11
sS'orangutan'
p12
S'AGACTGGAGCATCCGTCTATTTGGCGAAGTTTCGGCCGCGGATGCAGGAGGGCCTGTGAGTTTAGCGCTGTTGCAGAGAATACGACGAATACGGGACGCGACCACATCTCAGGCCCGTTAAACAGTCGTCCGCCTGATCGGACAAAGATGGTTATGCTTTCGCTACGCGGCTCCTCCTGCGGCGGGCGCCTGTCGAGCCATGTGCCGGTTAGCACTGTCACGCATGGCTTGGTGCAGGGGTATAAGTTAGCACAGACCGGTGAGACTCCCTATCGTAAACCATTCCACCGACGCCCTGCTCTCCAGGTGCATGGACACCTTGGTTCGTTGATCACAGTGCAGGAAATACATTGTAACAATAAATCCGCCTCTGGTCGTTCACAGGTACCGTGCTCTTGGGAGCGGACAGGTGGGGGGCTCTTCCCCTCAGGAATAGTGCGCTGGGATGCTGGCGCCCCTTTTTCTGGGGAATCGCGCCGGCTTGGGATTTACGAGCCCAATGACTCTGCCCACACTATTCTACTACGGCAACTAGTTCAGCTTTTCTCACTGGGCATTTACGCGCCGCCTTCGGTGAGTTCCTACAGTTGTGTGGCCCGGTCTATCCAGCAGTTGTGTGATTCTCATCGTCCAGCCACTGTCACGCGTGTCAAACGTAAGAAAGGGGACGTTTTTAGGCGCCTTAACAGTTGCCAGATAATAGCGGGACGTTCTTGTTACCTGAACCCTCCTATGAAACATGCGATCGGGAGTGATCGCCCGAGAGGAGAAGTTTACGATCTGACTCGGGAAATTGAAAGGTATACTGGCGCTCGAAGTCCCCGCTACACCGACAAGCCGTATAGATTATATGTCAACAGTGTAGAAGGCTACCAACGAACCCGGCTCCAATTTAGCTCAAGGGCGGACTTGAGCTGCAGAAAACGGATAGCGAAACAGACCACTGTGAACTCGTTGAAAAAGAGACCATTCGGGCCGTGCCTAGAACCTAACTTCGATAGCCAGTGGCCTAGGTTCGCCAGACAGGCAATTGAGTCTAACTTGCACGGGTTGGGGATCAGAACCGCACGACTTTCACCGGTAGTTATGGGCCGGCACCAGGTAGCACAGGGGTGCGTCTCCTTCCGGCACTGGTATGAACAACTTAGGGGTGTATGCGAAAAGGCACGCGCCAGGCGTTCTATACCTACTAGCGAAGGGCGACAGATAGGTTTCTTGTGTTCGGGGGCGGGTACCCTTGAAATTACACCCGGAGGTAAGGCTGAGCGGACCATTCGTCAGTTGCTATCAGCGTCTACGGCCTTCACTTATAACCAGTCAGAGCTCCTGCAAGGAAACGACTCTGCACTGAGGGATCCCAGTCTGAAGGGAATTGATGATGTAAGAGAGACGAACCCAGTACCGTCCCGAGAGTATGAACTTGACGCCTGGGGCGATGGGGGCTGTTCAGGGCGCAGTCTTCTTCTTATACAAGCAACATTCCGCCGAACAAGGAGGCGTCCTTCAGGGTCCCCCTCGATCGCGGAGGAAGCGGTATTCCTCCATCATGTTGGGCTGGGGCCCAACGGGAAGGTACATTTTGTGAACGCTAGGCGGAATCTAGCGCATTCAGTTACACCTGGGAGATTCATGGACGCGGGAGCCGCGCTGAATTGCAGACGGGGCGACGCGAAAGTACACCTGACAATCAGCTTCCGCCTGTTCCTCGGGTTAAATACAGTTCTAGACCCGTTCAAAGAAACAAACTCTCGTGGAGCCGCCGTTACTTGGAGCGGAGACCGCCTGCGTGATGTCCGGTGGACGCGAGATAATCTGAGTGGAAGTAGTGAATCCAGCTATTCCCTCTTGTCAGGGGAAGCGGCTTCCAACATGGCTCAGACGGCATCCATCGGAAATAGTACACTCCGTCGGATCAGCAGAGAGCTAGATCGTCTATCTATGCGCAGGGTTATTTGGCGAGGGCTGGTTGTTAACTCGGTGTCTGGATCCAGCATTCAAGCCATCAAAAACGCGTTCTCTGGTCGATTGGTTTTTAAGCGCTTCCACAGTGAATCGACGGTTCGAAGTCCGAAATCGGAGAGAAGATGGATTTTCCGCACGTCGATTATATGTGTCACGGCGAGGCATCACAAGCATTGGTATACCAGCAGGCGGGAATTATACAAGCCCCATGAAAGGTCCGCAGCTCCCAGAGCGTTGGTGGCATCCACATCAGCTGTCCCGGTTCCTTCCGTTATAAGGCATTTATTTCGACATTATGAAATGGGAGCCTCCTGTATTCGCCTCGGCGTGCATCACACCAAACCAATTAAAGTGGCTCATCACTTTAGGTTCAGGTCCGCCGCCGGTGCAATGCCGGGGTGCATCGTCTTGTCCCGCCCGCGCATGGGAAGTTCAACCCTCCTGATGTGCCTCGACCCGCTACTCATACAACGTGCTCTGCTGACACGTGCAGACTGCGATATGTCTCATGGCGCGAGCGATGTATGCGTTCGATTAACCGGAGAAGGCGTTATGTCAGTTTTATTTCTGCAGAAATTCAGCTTGTCAACTGTGCAAAAAACGCGAGGTCCAAAACTCTACCGTAGCTTGGCGGGCGACAGCTCATTTACCAAACTCATTACAATCATCTCGCACTCGTACGCGAACTCTCAAAGTAATTCTCCTTCATTAGGAGGGATAAGCGACTTCGCTAACTCTTCTCCACCTTGCTTCCCCAGATTAGGACCTTACAGGAGTTGTAGCCGATCTGCACCCCTTAGTACTAACGGATTGGCACAAGTCCAGCCTCTTGCGGTACATGACAGTGACACCCTCATTAATAGCAAAGAAGTCCGAGCATCTCAGGGCCGCTGGATCGGTGGCGGACTAATTAGCGGGGAGTATGGAGGTGCTCCGTCATCGTATGCACGGAAATCCCCAGTTCCGGAATTTGATGATCAGTCCACGAAACCCTTGAAGGGGGTGAGGGCCCGTAGTCTCGCTAAGAATTCTCTAAATGTACAGATATTCTCGTGCATGTGGCGAGCGAACATAAGACCGTCCATTAAGAGGTGCGATCAGCTGAGTCCAGGGCTTTCCACGTCTGGATTAAAGTGGATTAAGCGACTTAAGAATCGGAGCCGTAGCGTCGGTAGGTTCTTCTTAGTCCGCGACTGTGCCACGAGGATGCAGGGCACCAATGTGAACCTTCTAGAAGCTCCTCACACTGTCGACGCCTCGGGCGGAACGTCGTTGCTAGTACAAGACCCTGTGTGCTCGGATTTTGATACTGGTGGGGAGAGCCCAAAGTCATGGTTTAACGCACTCTGGGGTTCGTTATTAATTAGCATAGTGCATGATAACGAACAAGGGCCTAGCTCAACCGCGCTGGATTTTTTGAACCGGACGCACAGGCAATTTAATCTATTTATGACGTACGACGCTACTCGATATGAATCACCAGGCACTTGTCTGAAGGTCCGTTTTACCACAGGTCTCTATGCTCTCGCCGCTCTCACCCAACTAATACGGAAAATGGAGAAGAACGGGCTTGTCCCACTACAGAAGGTAAATCGTTCATTGGTCGCTGTATCCCAAACTATATTGCTGGTGATCAGACCCGGGTTGACGAACCGCTACACAGCTCAGCTTCTACCACTTGAATTGTGGCTTTATGGACTGCATGGGCTTTGGTGTAAAGCGTCGCAGGGTCCTGGTAACCAGTACGTGAAATTCCCGCTAATGCACAGGTGGGAAACAGCACGAGCATTCCTTGTCTTCTGCAACGCAGCCGCGCTTGTCGGCGAGCATTCGAGCCTGCTAACGGTAGGCACCAGACAATCGGAGCCTACTGCGTTATGTCACTTCGGGCAGCTGGTATGGCTCACTCATTCCGCTATAAGTCTGGTTTTTGATGTACTTTGGATAAGCAGGAAACGAGGGTCTGGCACCCGTCGTGATCCGAATTGCAACGTGTTTGTTGGACATTACAGTGTTGTGCACAGCGTTAGTGCATACAACATAAAATCGATCTTATTGAATTTGAATTTCTCACTACAGGCCGTATTTCATGTTCCGCCCGGGTCTTCTGCCACCAGGCATATGTTTTACGTTTACGCTCCCGATCTGGCAGAACCGGTCTGGTTAGGAGTCCACTCTGGTGCGATGCGTTGCTGCGATCTGCTAACCAGTACGGATCCATCTACCAGTGTACAGGCCATTCCGGTAAGTCAGACTGCACCGGCGGACAGCTCTGAAATGATCGCTTTAGGAACTCAACAGCATAATCGAGTACGGCGTATCAGAGGGATACTCTTGCTTCGATTCTCTCAAGACCGACGTGCCGGCCGGTACGTCCTTAAGGCTCGTTGGCCAGAACTACAGCAGGCGGGTGGGCCCACCTCAAGTTGGTCCGGTGTGGCTAATTTGATTATCCCCCTTTACCCAATTCCTACTTACGTGGGTGCTATGGGTAGCTATGAAGTACTCTTCACTAACCGAGGACGATGTCGAAATGAAATTCTCAAATGCGCCATTGTAGCTAGTTACGGCAGTGGCTTGTCGGTCAACAGCACTGGGTTCCGTCCTGTCAGAGCGCATCTACCAGGGAGTATTATACGTATTGAGACAGGCGACCGACGCGACAATACTCAGGAATTAGGATCACCAGGAGCGACAGCCTATCCCCACTCCGAATACGGGGGTCATGGCTACCTCGTCATCGGCCACCTTGCGAGTACTGTACTAGAGCCAGGAGAGTGCGGTTTGTTGCGTCTGCTTCTGATTGCGGGCCTCGGTTTACGGACTGAAGACGAGACGCACAATCTGCGGTTTGCGTGGTTAAAATCGGGTTGGTCACCCTCGACAGAGCTCTTTCCTGTGTTGGCTCTATCAGGTATGCATTTCCGGCAGCTAGGACCCCTTCCGGGCTTAATAGATAGTTGCCCCGGAATAAGTCATTTTCGTTGGAGTTCATCCAAGGATGCCCCGGTCCCTTGGGATTATGCATCACTCTGGCATGTACGGACTTATCGCGTGTGGCGACTTGCATCTCTTTCCTCCTGGTGGCTGCGCCATTCCGTCGGAAGGGTGACTGCATCGGCGACTGCACGATGCACGTCCCTTAGGGGTGCGCCCTACAGTTTCGACGGCTTAGAAGTACGGCTTGTGCCTCCAATACGTCCGGCTCGATTGGTGGCACAGGTGGGTGTTATCTGGCCGACCACGGGTGGCTACACGGTAGAGGGTGACAAGTCTCGACTCCCACGCAATCTATGTATGTGGAACCGAACTAAACAAGACAAGAAGCTTTCCTCGATTAAAGTCATATTACTTTCCGCCGCTGACGGCCGTCCGAACGCCTTGGTTTCCGTATCGCTGGGGAAGTGGTGGTGTCGTGATCCTAATTCGTATAGATTTTGTGCTTATGCTGAACGTAAAATCTGCGCTGCATTTGATTACCGGCTCAGTATGTCCGGTGACAAATGTCAGCGGCAGACCAACTCTCGGTGCGGAAGGACCGTTTTAACAATGATATTTCGGCTTATACTGATCCTCACGCTCGGAAAATGCACGATGTGTGCCTGCAACAAGCCGGACCGACCGTCGATGTTTCAGCTAACCCCGCACTTTCGAAATCTGTTGATATCATTCCCACGGTCCCGCCCATCAATGGGTAATCGCCCGAGCTTAAGCTGCTCGTGCCAAGCACCCGTTATGACTATCTGGGTGTCTTCGTTAGCAATATGTTTATTTTGCTTTGGCCAAGGTTCCGAATTCTATCCCCTGGCGTCGGCGGAAAAATCCCCGCACGATGCCTATAGCGCTCACAGAACATACACGAGCCGACTCTGTACGGTCCTCCTAATGAAAGGTCTTCGGCTATCTCCGCCACTCGTCTCGTGGTGGTACCTGGCTCAGATTACATGGGGGTGTAGTGGCTGGACTACGTGCAAGGCCCACGTAAAGGAAAAGTGGAACCTCCAAAATGGTGCGCTAGGGTTGCAGATAATTGACCCTACTCCTTTACTAATATACTCCCCGCGGCCCTTGCTAATCTGGAAAATGGCCGTGGGCCTGTATAAGTACAGTTCACAGCATCAAACCACCAGCGTTGCCTTCGGACTGTTTCTCCTGCCTGATCTTGAGGCGTACAACTTTTGCCCGGAGGCCTGTGGTCCGATTTCATATCCTCTAACAATGGAGGATACACGTACCCGCGATACTCAGCTAGCGCCACGAGCGCCGTCTTACCAGACCTACCACCAACGAGGCCCGATCAGGCTCATCACGGGTATTTATATATTCTCCAATGCTTGTTATGACTTTGTGTGCCATATATTGTACACTTCGTCGTCCGGTTCAGGGAGTCCCGTACGTGTTCATCACTCTGCTCTAGCCTCGCGGTACCGAGCATGTCTTGATAGCAACACCTCTGAACTATCCCTGCCATCTACCTGCTCAAGGACGCAGGGTGACCCTGCACGCCATAAGAACGTTCGCGGAATTGGCATGGCACCTGGATATTGCGTAGTTACTCCACTGTGGCTAGTAACAAGTTTCCGGCCACCAAAGGAAGGTGCCCGGATAGGGGAAGAATATGGCCTATTTACGTTGATATTAGACGTCTGGTTGATGCCGCGTGCGTTGATACCTTCCAACAGGATCAGCGACTTCTTTCTGGCAACAGCAATGTTCACAACCCGAGAACAAATCCCAAAAGGTAACTGCAAACTCACCACTCCATGGTGTTCTGACCATAGTTATTCAAGACCGCCTAATTGCCAAAGGCACACTCAGTCAATGTTACATGAAACTCCAGTTTTTGTGCGAAGGGATACAGGTATCACAATGGCGGAATACCGGACCGCCGAGCACGTTGGACCCGCGTACCCCTGGCTAAGCCCAGCTAACTGTTCCCCACCGTCCGCAGCGCATGGCCCAGAGGCACACGGGCTCAGACGCTCAGACCTGAGCTGCACCGGCGTACTCCGGCGTCTCATATACATAATTATAAATGTATGGCAGGTCCGTTTTTCAAAAAGTCGTAACAGTAGCGCAAGTACAATGAGGGGGTCACGCAAATGTCGCGCCCTCCGCAGTAAATCACAGGCCGTAACGTCCCTAGGCAGTATTTACCTCCTAGAACTTCGTTCATTAGTGCAACATTGGCCCACCCCTCTAAGAATAGGTGAGCGCTCCGCGCGTTTACCTAATTGGATTGTACGGATAGTGAGGACTCCGCGGAAAAATAAACAAATAACTCTTTATAAACTTCCCCCGCTCCGTGCCTTAAATGCCGAAAACCACAAAACGCTTAGAGCGAGACCAAATCGACAACGTACCGCACAAGATGGGAGGACAATCAGCCCTGGCGGTCGTCGACAAGGGTTTCAACTTACGTGTGGGCGGAGACTTTATATTCCGTCCGGATACTCACTTTCTTTGATCTGGCGGTGTAAGACTCAAGTCCTCACTCGCCGTACACGGTCCTTAGAAGCTGCGTCATGGCCGCGGATAGAAACGGCAGAATCAGTTTCGGCGCCCATGGGTCCGCTAACCCCCTCCATTCTAATAGCCGAAGGGGGATGGAGGGCCATACTCCCTTACAGTTCTCATTCTGAACACGGCGTCGGGGGCCGCCTCTCGAAAGAAGTTTTGACGCTGACAAGGGGCGAGTCAGGGCGGCAATGTGCCAACGACAGTCGGGAAGCCTACGGTAATTCAGACCTACGGGATCACATAGCTTTCGACTCTATAGAAAATGGTTGCAACCCCAGGAAGACACGAGCCCCGTCAAAGCAGCTTAATGGGCAGAACACCTGGTTCGGTAGGGAGATATATCCGGGTAACTTAGGCTTTCGGACACACGTGCTAATAAAAGAAAGCCGACTGGATTGGCAGGCGGCCACGCAGCTGCTGGCCGATCTTTTGTTAATGAATAATAGTGAAGGGTTAATTCCTGGAATCTCTCCCATGTGGGCCCATAACGTACGTTGCCTACGACAAGCGATGCAGAGTCGAGTGGCTTATTGCCTCCAGTGGTATATACAACGTCGGCTGATCCTTGGGGGGGATTCTTTTTATTTAGTATGCTTTACTCGAGCGCTGAACCTCCTAAGCTGTCCAGTGGATTCAACGCAAGTGATCTGTGATGGGCTCCCTGAAGGATGCCACTCCCCTCCTGCGCCACCTCGGCCAGATACAAGTGACCGCAGTTTATACTATTGCCTGGACGCGGTAGAATCATGGCGCCGATTGACAAAGCGGCCTGCATTGCCGAGCAGCAAAGTCCATCCGTCCCACATGAAATCTCTTCGGACACGGGGTCCTAAAGGGACGATAATCAGTCTGGATCCTGGGACGAGACCTACGTCCGGTCCGGTGGTTCCCGTTTTCCACCGATGGACCAATGGCTCTCTCTTTTCTTGTGAAAGCTTACGATGGCACCGAAGAATCCGCCGTGCGAATGGAAAGGCTTACTCGGTAGGAAACCCTACTCGACGCAAACCCGACCTGGTGATATGGTTTGTAGACGAGGCTTATCCATTGTTGAGGTTTAGTTACATCGGCTGGGGGAATAAAGAACGTCAACTCGGTTTCGAACTTCTCACCATCCCAATGTTGCTGGGAGGCGGGATCTCGCGCTCCCACAGCCGTAGCCTCCGGTTCGCGGTAGAAAGCTCCAAAATCAAAGGCAGCAGTCAAACGACGTATGCCAAGCTTGCACCCCAGGAACATAGTGTCGAGCCACGGTCCTTAACTCACCGGTTAGTGCCGAAATTCAATCGGCGACTGTGCGCAGATGGTAACCGGCGGCTTGCTGTCGAAAACCAACAGCCCGGCGAAGTCACAACATATTGGCAACTCGGGTGGCTCTACACCTTACTGTTTCTGATGAATTACATGTCGGTCGCGGGCAGACGAGCTCCACGCGCTAGCTGGGTCTCTAGTCAGAGCATCGGCTATAGCTTGCTGTTCGTCCGTCGATCTCTACAGTCCCTTAAAGGCGTATGTATTCCGAGTCACTACTCTGCCAATGCAAGCCTAGGAGTTATGGTTCCTCTGCCGGAACAGAATTTAGTTGATGCTTCCTTAGCCACCCATCGACTATGGCCTCCTGGAAGTACGGAATCGATGCAATCTGTTCTGGAGAATCAAGTGAGTGACGTTTCGACGTTGCATGGACTCGTCCTCTCCCTTCTTTGGCGACAACCAGTCCAACGAATTCACCCTGCATCTATGGACAAGACGCTGACTAAGGTATACGCGGTTCAATGGCGGGGAAGTATCCCGATAGTGATCCAAGGATATGCGCTGACAACGGCTGCTCGACGCCCACCATCGGCTTATGGTAAATCTACCTTACCGTTGAAAGCAAGGCTGCCTTACGGGGATTTTGTCCCCTACGGCTGGATCCGTTTAGAGTGTGTCCAGTGCCGTAACTGGGGGTTACTCCCTGTAGGGGGCCCGGAACGCAGTTTGCCCATCCGTACACCTCAAGGGCGAGTTGGACTAATAGGCATCGGCATCCTGCCGTTTCCCAAGTACGCAGTTAAGTATCCCGCATCTATGTTAGATCCTTTTGGGAGTTCGATTCGGGCAGCCGGGATCACACGCGTCGTTCACGAAAAGATCAGTCACCCTATGACGGAATCGTATACGAGTTTGCACAGAGGTCGCTCTGGGGTCAGGGTCTGGCGCTTTTTATCAATTCACCCATCACGGCTATCTCGTGGATTAGCCAACCTGACGCAGAGCTTAAATTACTCGCAGGGGGCTAGCGTACCATGCGCAGCAATCCTGTCTGGGCAGCCTGCTCGGAGTTTCCCACATGTACCCTTCCTCTTCCATAATGATCGACGATCGAAAGTATCCCGTCCTTTACTGTTACGTAGCCATAATCCTAGGTTACAGGTGTCCGTTGACGCTATGTTACAGCTACGCCACTTCGCCACCCTTACTTATGAAATCAAGCGTGCATACCTCACTTCCGGTTCCATGCTTACACTTCCTCGTGTCGCCTTTAAGGGATTGAACAGAACATATCCAACCACTCTCAACACATCCCCAGAGAGATCGGGTTGCTTGGAATTTCTCTGTCGAGTAGGCTTCCGGGAGCCCTCGTGCCGCAACTCCGTTCACCATAAATCTTCTTGTACCCGTCTGTCAGGTCCAGGCGCTGCCGTCAGGTCAATTGATTCGAATTCTCGGAACAGCTCATTTTTGCGGGCATACTTTTCACTACTATTTGTAGGGCAGAACAATAGCAACGAAGCGTGTGCATTTATCAGTCGAGACCGAAACACAAATATTGGGCTCGACGGATTCTGTGTCCTCCCCGGTCCTGGATCTCTCGAAACGCGCTGCGGAGAACGCACAAGACCACACTCAAAGGAGTATAAACGTCCGCTTTTCTGCTGTTCGAGTCGACGCTACAGTGCTAGAAACGGCGGGGCAACTCGGCATTACACCGTGGGTTATTCGAGACTAACGTCGTTTTATGTAGGGGTGTGGGTAATCATCTACCGCTCGTGGATTCGAGTCCGTACATTCAATTCCAGGGGCAGCGTAGATCCCGAATGTTGTGGATTGCCAGATTCATTTTCGCTGGACTGGGATGGGTCAATGCATTTAACGCATCTACCACTGATTGTGCCTGGGCTTGTTGCCGTATCATACCGGCGTGTGCCGTCTTCGCGTGTGAGAAGCGCTTCGAGACGTGATATTGAGTGGGGCCCGTTGACTACAGGACTATACGGTCTATCGAACAATTATCCACGGATGCTTTCTAACGAATCTTTTAGACTCGATAAAAGTCACTTTATTCAACACGACCCGTCTTATTGCTGGCCCACTAGAGGGTTTTATAGGCACGAGCTCGACCGAAAGTCTTATCAGGGATATGAGGATTTGGCTGCGCGCCTAGTGTTAGTAGCCTGCAAGTCGTTTTACCCCTTGAGCAAAAGTACCTGGACCGCATACATGGTCTCTTACAGCGAAAACTGGTTAACAAGGAATAGCCATCCGGGAACCAAACATACATATAGTGTCTCGTCCATCTCCATGACTTCTTCATCTGAACCCCACGAAGCTGTAATACAGCAGCCCATAACCGCTTACGCAGCCCAGAGGCCTACTGGAAAAGCGGGTAGCAGCGTGAACCATGAATTCTTTACAAAACCCACCTGCGACCGTATCAGTGCAGCCTCAGCACGTGTGGCGACTGCTTTTGGCCGCCGTATCGATACCTCGTTATTCGCGAATCAACAATCAACCCTTGCCCCTGGTCAGCACAGATTACGGGGGACATCGACACGCGCCCGGATAAGTCTTACGTATCTCGCGTCCTCAAATCAACTGGATGGCGGCAGGCTCCAGACCACAGTAACCGCGTACTGTCCGCGTACACCGAAGAAGCCCGGGGGAGGTCACTATGTTAACTCTCGTGTGATGCCGGAAATACACTATCTCCAAGGATTACAGTTTACCCATACCCGAGTCACAGGTCCAGTAAAGTCTTACTCTAGCGTGCACTCCACGTCACGCCAAGAATACTTCGTTTCTACCGCGACGCTTATCCGGCTTTCCCAGGAGCGCCTTGCAGCCCCGATACCCTTAGTCTTTTTCGTAAGAAGCATCCGTGCTGGTAGAATACAAGTCACACCAGACTCCCTCCGGCTGACTGTTTTGTTAGAACGTCAGCACATGCTCCCATTCGTCCTTGCACGCCTCTTCTTCCTGATGGGAACAGCCCCCATCCTGCGTGTTTGTCGCAAAGCGGGAACCACATCCACCCAAGGGGCATGCCGATCCACACACGCTCAAATCACGCGCCAGAGAAGGATACAAGAGCCTCAGGATAAATTCGTAGCCCATTTCGCCGGGACCTTCAGATTTATGCTCGACCGGTGTCCGTTGCAACGTCGCCCTATGCCAGCAGGTTTAGTTATCTTCGTTCTAAATGTACTAACTGCCAAGCGAGTTAATTGCCTTACCAGTCCTCCTCTGCAGGAAGGCTTCATTCTTATCTGTGCAGGCCGTTGCGAAAGTCTAGGGCACGGTATAAACATGTGTTGCCTACCCAGGAGAACACACAAATATCTCCGGCTCCGTTACCGTAATGTATCATTAAAAACTGCTGGAGTGAAGAGTAGAGTTATAAATATCTCGCATGCGTGTCACTGGCACCGTGACTGTCTAACGTTCGCTAGCCGAATACAGCCCGAAGGGCTCCTCATGTTCCGTCGACAGGCCTTCAAGATCCATGGTTTTTGTATTAAGCCAGAATTTTGCAGCTGGTCCTATGAGGTCGCTCGTGGTCAGACATTGGTTCGGCATACCTTGGCACAGTCCGTGTCTGGCACCGCTCCAAGTATTTGTGGACCGATCAAGAATGTAAAGCACTTGCCATGGCTAAGACTTGGAGGCATAGGATATCAGGAGAGAAAAAAGAAGGGACATTGTACGATGGCCAGGACCGAGTTATGCAGCTCACGGATGAGTATTAGGTCAAACAACCCAGCGTTCGGCGTAACCATGACGGCCCCGATCTATGACGTGATCAGACGACTCAATCAGGCCCTACCCAACAAACCGCTTGATTTTTATAAAAAGGAACCTATCCATCCCACAGAGGCGGACATGGTCGTGAGTCCCCTACCATTAGATTCAGTCGTTTACACGACGATGGTAGACACGTTCATTATCTATATTAGCGCCACCGCCGTACCACACATCGCAGTAGGGCAAGCAAAGCGCTACCCTTATGAGACGGGTGCAGGGAGTGTGCGTGGCGAAAATCATTGGGATGCTCTTTCTCGGATCACTTTTCCGCAGTTCCAAAGATATCGCTTACTTGTACAGATCCGTATCGAGACAGTAAGCACGTTCGATCACATCCCCAATCAGTTTATTGTGGGTCTCGGTGCACACTTCATTACGGCGACTGAGCGCTCAGTTGACGTCGTAATTTTGGATGGTGAGTATATGCGCCTGCTTGTTTCCAATTGCGCCCGAGTTCACTCTTTTTTGCGCCCCCTAAAGGCAGCTACGCCCAAGCAGGACGATTCGGATATTGCAACCGCGCGAATGTCTCGTTCTATATGCAGCTCCACCCTCGTTATCATCAATGAAGCGTTGCAAGAAGGTTCGAACAAGCAGGACAAGAAGAATTTGCGTAGCGCCATGGTAGGTAAGTTCGTGCCCCGTTTAACTAAATACGGTCTTGGAAGTGCATATTCATCCAGCATGTCCGTACGCAGCATACTTTTTTATCGCGAACTTAGGGAAGTCAACAGGATCCTAGTCCGTTCACATAGCCAAGTAGGACTGTGGCGACAAAGTTTTTGTGACAAGTTAGTATATATGGCGCGGTCACACTGTCACACCAAGAGCAACATAAAAGCGCACAGTATAGCTTGCCCCGATAGACCAAGAGCGAAAGGTTTCTGGCACACCGCGCTTATGAGAAAAGTAGCCTCATGTTGCCCATTCATAATTAGGTCCGGCAGACCAAGTAATGTCGCTCAGACGAAGCAATTTCCTCCATGCCACTTTTACTGCGTTGTATCGGCAAAAGGAGCTACAGCCACGGTAAATTATCTACAGTTCGGGGACTGGGTTTTGAGTAATTTGACACGAAGGGTTGACGTATCCGACAAAGCATCTGCTAGATCGCTCGGGAGCATACATGGTGTACCTGAAAGAAGTTTCAGTTCTAAAGCATCCACTTCTCGCATATGCGTTCCACTCAACCCGTGTGGATTTAGCACTCGGTTGCAAAGCGAGACTTGCCCTGATAGCTTAAGGTCGCTCCCATCCGCTCGAAAGGCCGGCTACTTCTTTAGGTTCCTAGTGGCAACGCAATTTAACATACAAACGTTCCCTTGCGGTAGGTACTCATATTTCGGTCAAACTTTGAACTATTTAACGGCGCGCCAGGACCTCGGACCAAGCGTCCAACGATTAATCATTGCATTATTGCGTCCTGTAAACTCGACCTGTGCAGGTAGCCGGTTCACTGTAAGCTTAGATGCGCCACACCTCCTATGTTGTCCAGGGCTGAATGGCGCCCACTTGCTTGATGCCTGTGCTTCGCCTTCCCAATTTCCGCCGGGACGGTGCCGTCAGGAGCCGGCTGTTCTGTCGCTTGATCGGGACCCGGCGAGATTGGCCGCCGGGGCGAATGAACTATCCTACACGCCGCGCTTAACTGCAGCTAGCCAAACCAATAAGTGGGAACCCGGTTATACCTTCATGGTAAAATCGGATCTAGAGGCAAAGGGTCGAGCAATCATTGTACACGAGCCTGCTTGGTGCAGACGAGCATATATCCTGTCACCCGTATACGCTAAACTGTTTTATCGGCCGACGAAGATCGTAAAGATTCCCCTTGAACCCAGGGGTGCAGTTACGAACTCGTGCTCGTTTCGGGTCGTGCTACCCACATGGGAGTGGGGCGAACAATCTCAGCAGGCTCGCCAACCTGCTCCCGGCTATCTTGTACCTCCCGTGTCGTGCATGGTGCAAATTCAAGTTTTCGTCCGAAATAGCCGCTGCAGTAATGCCGACGCTCCTTCAAGCCATCGAGTCATCACTCAAGGGGCACCGACCACTCGTAGGATCTTCCTTCCGTGCACTATGGACCTGTCCCGCCCCCCTATTTTCGTGATTTGGGGGCAACACTTAATGTCGATCTACCAAAAGACCCGGGCTCGTCATAAAAGCTTCCGAGCACTTATGATGGACTATGCACTCCTGCGCCAGCCACCAGTCGTCGCGTCGCGCACGGTATCTCTTGCACCTTTTATCTGGGCAAGTAGGGTACACGTCATTCGGAAAAAGAACGGGTCCCACAGACTTGCAAACGGATTCAAGCTCAAACAGAATTTGACTCGTGCAACTCGCTTGTCCAACGCCGAACCTAATCCTGGCAAGAAAGCATCTTCGACCTCGCTCCCAGTGACGAGCCAATGTTATATTTCGACACGGCCACCCATCAGTCCAGAACCGCGGCAAGACCATGCAGGGTCAGGTACGTCCCAGACGCCGTTTCATATTGGGGTGTTGACTGACACAGAAGGAGCGAACCTGCCTCGGTTGTCGACCAACCGGTGGAACGCCCTTGATCGAAGCCACCGGTGCTTCCAGGATACCATAGATATAACGTCCTGGTGTGAGGGTACTGCTCCTCCTAACACAGAGTCGGAAAGTATCCAACAAACTTGCTCGCTGCTAACTTTTTTCACGCCTTCTCCCCAAAGATTCTCGAGCTCCCACAGCGAGTACCTAGGGTCCGTAAGTACTTCAGTACTGGCGCCGATTATGCGTTCGTCTGCAATGGGTGCTTATCCGGTACTTACCTTGAAGAGACATATCTTTCTTGTGGCCCGTAAACCCGCCATGTCTGTGGGGGTCTGCTCGTATAGCTACAGTCTTATGCCATGTAACACAATCTCTCATCTACGACCCGTATACGGGCAATTCCAACATAGATGGAACCTATGGGCGAATCGAGGCGTAGGAGTAGCTCCGATGCGACTAAACCTTCGAGTCTCGTTCGGCGCAGTTAAATCTATTGTGGAGGGTGGATTGTGCCATATGCATGTACTTAAGGCCTCGGAGGGATCAGCAAGGAGACGAGAATGGCACCAATGCACAGTCGTGGTTCCTCCCGTTCGGTACCGATTCCCTAAAATACCTGATACAACTTCGGCGGCACATCCCGCCGGCAAAAACGGAGAATCTATTTTACTTGGTCAACTAAGAACGGGTTCGATCGCACCATGGTGCCTAAATTGTCAGGATCTCTCGATCGACAACATTAAATCACTCGTACGCTACTTTGATTATCTAATTCGCCATACCTTGAATCAGAGCCGTAGGTTGAGGCGATGCGTAGGCAGACATAGACGTATGATGCACGGGCCCAGGTACCTTTTCCAAGGTGGAAGGTCCTCGTCCTGCGCTGTAATTTTGCAGCGACATCGAGCCACCTCTGTTGCTAGGTCGCGCACACCAGTCGGGAGGAAGTCGATGCTCTTTCCGTCGGACCCTATAATTCCTGATATCTATGGCCAACCTCACAGAACGACGCCCGATACAGAAAATCCAAGGTACAGTCTGGGAGCAGTATGCCGTAGAAACGATGAGGGAATTCCGTGCTCCCGGCCTGGCGATTTTATTTCTGGCTTTACAGTTGGGGTGATCGATGTCCTCATCAGTCGCGTTGAAAGTAATCGTGCCATTTCGATCGCAATGCCGGGTGCTTTCTTATCCTCGCTAATGACAGGAGCTCTATCAATTTCGCTAGGTCTTTTTGCCCAACGAACTGTAAGGTCGCGGCTCGACTTTGGTGCCGTAAGTCTTGATCCAATGTTACTAGATATACCCATAAGCACGACAGAGCGGCGATTCGCAGCGCAGAGTAGCTGGTTGATCGAAGTACTGGAGACGTACTGTGCCGACAACCTAGCAGAACGCATATGGGGATCAGCATTTGAAGAGGGGCGTGCAACAAACGCTATATGGAGAAGTTCTATGAGATACTATGAGTCAGACATTCATGTTTTCAACCGGAACACTATAATCGGACACACGCCCTCGGTGTTCGTTACAGTCGTTCAACTAGATACGAGGGCTAGGCATTCTTTCAGGAGGGGGCAGTCTTGGGAAAGACAGTTTCGCAATTCTCGATCAGCGCTCAGTGTGGTTGCGTTGATTGGTGTCCGTGCAGTCTTAGATGTCTGCGGTGTCACCTATACCCTTGACAAAACTCCCCGTTACACCTCAGCCTTAACCGTTCGGCGTCTATATTCACGCTATCAGCTACGCGCTAGTAGACCTGGTAACAGTATAACCGCGCGCTGCGGATCATGTTGCTACACGCCTGACAGTATTGCCAGAAGAACGCCGTTCCAAGCGAGGGTTACTGCGTCGACCCGATCGGACGGGCGTTCAAACCATCTAATGGCTATTTCCTTGAAAAGTGTTACAGTCCGTCGCTGCCTGGAGTGGATCTGCCTTATCTTCTTTGGACGGATAATAGTTGCCTCCAGCTTTCATCCTCCGCTTTCAGTACGTCGATTGATGGTTCGCAGTTATACTCAGTACCCTGATTTGATAATCCTAGAGGTGCACAATTTGCGGTTTACAGTATCTCTCACCCTTCGCACCATCACGTCTTCTGTTGGCGACAAGACTGATGTCGTGCGTGGGCTAAATATCTATCACAGTTATAAAGTCTTCTTATGTAGACGAGTAATAGATCTTACTCTGTTTATTGCCAAACTTATGGTTATGGCATTCTTAACTACACGTAGGGTGAAGCAAGAAACGAGGAGGTGTTTGAAAGAAGCCCACAAAATAACACTATTCATCCTATTGGCTTCTAATCCTGCTAGATTGGTCGGTCGAGCAGGAATACATGAACGCCAGCCGTTAAAGTTGAGCCGGACGCTATCGGTTTGCGCAATAAGAAATCACATACAACGCGAAGGGATAGACGAGTTCGACCCCCCGCCGAGCGGCTGGGAAAGCAGACGTTTCGGGTGCCCAGATATGAGACTTGGTCCTTGGCTATACCAGGCCCTACCGGAGGGTCCGTCACAACTGAGGCGACGTACTGGGCCACAAGTACCCAAGTGCCTTACTCGTGAGGTGTTGTGTGACTCGGTAATCCGGACATACAGTAAATGCGCGCCGTTGTCAGGGGGGACCGCATGCACGCAATTCAGATGCTCATCTGGAAGTACGTGGTGGATTATGGCCCCCCGTTCTACCGGCCCGGATAAGTTTCCTAGGGTCGCGATTCCTCCGAGTATCGACTGTAAAGTTAGTTTCGAGCGCCGAACGTGTCCGTCCGACGCTTCGAACTTTCCATCAACAGTACAGCATCATCCACATTATTACCCCCGGAATGTTTGCGCTCTCACTTTCCCGCGACGCTGGGACCTGAAAGGTTGTTCTTCTGGAAAGCGGAGCCCATTTATGTTCGAGACTATTGCTAGTTGTACCTCCTGGGTGTTCCCGAAATGTGTACACGCACCGGATACTGGCACTGCTGAAGGCTGCAGCCGCCGTCGAGCGGGCACTCGCTGTTGGATCGTAAGTTTCCTCGCCTCCTGCTTGGGCACGGTTACATCGCCACAAAACACATTCCATTCTGGCGATCCGTCGCCGCAAGGACGCAGGAAATCCATTTCTTTATCGATGACAGCAACGACACCTTTTGATGGGAACTTTATCATCACCACTATTATCCTGGCGATATTATTTTGTCCCGTGCGTATCGCTGGGTTACCGGCAGACTCGACAGATAAAACGGGCCCCCTTTTCAAGGTTCTGACACTCCCTTCTATTGTGTTCCATAGAATGAGGACCCGATTCACCGTCACATTGGTTCACACTGGTGTGCATCTTGGGGCCGCGAGGGTCATTATACCTAGTCCTTCGGATCCTGATAGCGATGGGCTCGCGCTGGCCTCACAACTCGTGCAGGCGTGGCTAGGGCCCGCAAGGGGACCTGATTTTAGTTCCTCTATAAGGCTTCGCGGGAGAACCGTAAGAGAACAAAATGTTAACTACTGGGTGGCGAGTCGCTCGGGGAAATTTTTTCAAGATTATTTGGTCTCATTTTGGGTAATTTGTGTCAAACAACACATCTCTATAAAACCTTCCGTGATTATTCTAAACACGCACTCAGGACAGAAGCTAATCTGCTCGGACCACCGCGATCTGCCTCTCCCAGATTGTCCTACAGTCACTCTAGCGCAAAACTTTAGGCCAGCCTGGCACTCCGAGAGAAAAGCATGGCGCGCGGATTGGGACGCAAGGCACCATAGACTTATTATGCAGCATGTCTCCGGTTCGACAAACATAGCGTTGCGTGGGTTTGTGTTTTCACACGCAAGCCCATGGTACCACAGCGTAGTCTCTAGTATTTTGGTCACTCATGATATCGTAATAGGCGCCACTGGTATTGCGGTAGACATGCCATTGCCGCTTATCTCGTCGGCCCCAACGGACCCAATAATCGGGATAACGTGGACCAAAAGCTCGTGGCATTACTGGTCGGATAGTCGACTGGTGCTATTAAGAAGCAGGGAATACCCCGACGTTACGCTTACGGAACAGAAACAAGAGACACAGAAACGCGGGGCTCTTCCGCTTGCGAGATCAGTTTATCTTATATTGGCGACCTCCTCGCATCGCAGCACGCAGGTAAGGTCCCACAAGTTCCGCTTCATAGTACGGCCGCAAGATATTAGGACTTACTGTGTGACCTATAGCGCTAATGAGTTGGTTGGTGCACGGCATTGCTATGCGTGCGTCAAGATATCGAGCTGCAATGGGCTACCCTGCTTCGGGTGGCAGAAAGAACGCTCCCTTCATAGTGAAGACGTCTGCTCACCAATGGCAATAATATTTGCTAGCGCCAAAGACCAATCTGCGCTTTTACCCATCCCAGGTGACAACCTCATTTCAGGGCCCAGCTCGCCGCACCTAATAATCCAATCTTATAAGAGAGGTACCCCCACTAGCCGCAACCATAGCAATTTTTCATTTTATGCAGCACTAGGGGGCCTGCGCGGTCATGATTTCCGTATTCGCACTTCTATATGGCAACGGCCATGTGGCTCGCGTGAAATACATACACGAATCTTGGTGCTAACCCCCTGTGTTAACTTCGGTCTCGTAGCACCGCCAAAACATCCACGCAGGGAGAGCCAACCAGCCTCCGGGAGGACCAGGTTCAGCAATCGTTACCGCTGGCGTGGAAGGCTAGATCGCGTGACTAGTCCACGTCTAGCCCCTGCGCGACAGAGCCCCCCTCGGCTGCCAACTTTGTGCCCCTGTGACTGCACCCTCGACACAGATTCCCCTGACCTAGGACACTTCACCCTAGCCTACGCTAGTGATAGGTTTCCCTCATGGTCTTACGCCGGACTTCGTACAGCGTTCGTCCTCAGCGCGGGGCGTTTACGTTATTCCACCCAGCAGTGGCGGCCGAGAGGTCATGAGCGTAACGCCACTGACCATACTTCGAAACCTCTGAACGTCGAATTGTACATCTCACTCGGGTCCTTCCACCTTAACCCTATCAACGCAGAGGTTCAGAGAAGGAAAGAACGTGCGCTAAAATATTTCCCTCTGGATTCAACTCTACCGAATTCAGTGTGGGTCAATAAAGATTATCGTCCGTATATGAACCCGCGGATCGCACATATCGTACAACAGGAACCCTTCCTAAAAACGTTTGAGTATCGAGGACATCACCTGGTTGGTATCGCGTCGCTTCCTTACGCACTAAAGGGGACTCACTCGAGCCATAACCCTTTCTATCCCCGCTGCCTGAGATCTCAACTCTCCTCTAACCGGGTACGCACGACGTCTGGGAGATCATGGGCAAGTGCTGGAATTAAATCAATACTCTCTGTCCGGGGCCCATTTGACTTTGACCTTGAGCATGTCTTGTTGGCCGTATCGAGTAATACCTCTCTGGATCCAGGTTTAATTAACGTCCCGAGCGAGAAAAACCATTCGGATACAACGCATGTCACTTTCCATAAGGCGCGGGCTATTCCGAGAAGTTGTTTCGAAGAGACGAACACACCCATTCGAGACCGAGCTAACATTACGTTCTCTTCCGACCGATTAGCAGACTTACGGGAAGCTGTTGCAGCCGACAAGTGCATACAGGGCCCGCGCCGCCTGAACTCAGATGCGATTTATGGAACCCATTCGTACGAATGCGGCTCCGTCAGACCAGGGATCCCAAGGTCACTCGTGCACTATAATTGTCAATTCCAGTTAGGTCTGGTATCCGGGGTCGTCAGCAAGGAGTTTGTCGTATCAGAGAATATCGCCCATATACCCCCTCACGCAGCAACGTCTGATCAGCGCGTCACCGCACTTGATGGCCGTTCACGAGATCGTCATTTCCGCATCAACACTAAGCCGATATCGCGATATGGTTCGGTGCCGCAAGCTTCCCCGACTGTTCGGACTGCAACACTCTTTCTGGCATACCAGCAAAATTGGGGCGCAACGGCCATTACTGATCAGGCCGGTTGCATTTATATAGACATGAGCTACCGCGTTGCTAGCTCACTCCCCGGGATAACTCGGACTACTCCTTGGAGCTGTTCAAAAGATCCTGGCGGAACTACGTCATGGGTCGCCATGCATCTATTGTCAGAGTGCGGGACTGTAGCTGCCGAAGGCCAGAAGTATACCATCCCGTCTCCCCCTTTATGTAGGGCTTGCGAACACCACGCCACCTCGTACAAGCTAGCCTGGGCGCGTCAGGAGTGCATCCATGACATTCACGGTTCGGCCGCGCGATGTATCATCAGTAAAAGTTGGAGACTATATATTAAATTTTTTAGGCCTGGTAAAGCAATACCCGGAAAAACCACACTGAGAACAGGGTGGATAATAGAAAAAAGTAGACCCCCAACGCACGTCACCTCACACTTTATGCTGAGTGGGTTATTGAGCACGATTATGACAGAAGGTATCGAGGAATTGGCGCTTAAGCATAGGCCGGGGTCGCCTTTCCCTACTCGAACCCCTACACTCTTCTCGTGTATACTCACTATATGGGACTGCCACAATGTTTACTGGCAGGTTGTCGGTGAAATGAGCGCACTCTTACCGGGACTTCGAGTGCAGCGACATCTTCAAAACCCCAAGTTCGGGAGAGACAGACTCAGCAAGCGAGTCGTTCTTGCGCATCCTGGCAAGGATTCTTGCCTCAAAGATCGTTGGGGACGATCAATCGGATCTCCTGTATGGTCTTCATTGCATAGGAAATACTTTAGGAGACAATTACCGCCGGGCAGTTCAATTGAAACGGCTTATGCCGGACTCCGCTATACGATTAGTAGCTACCTACCATTCAATAAATGGGTTATACTGATCAGATTTGAGAGATCACGGCGCCGCCCGTCGGAGCTGCAACAGACGTTTCTCTGGCACGGTGCCCAGACGATTCAATTTAGAGGTTGTTCCCGGCCTCTGGTTAGGAGGGTCACCTTAATCTGGGCGTGGTCAGTTCTCGCGTGCTTGCCGAAACTACTATCTGGTTTCATACGCTACTCGATTAAGCCGTATTTATATCGAGTCAGGCAATACGAGTATTCACACCGTAGTGCCACAGCGAAGTCGTTGGAAGGGCCATTCAGACTAGACTCCATGGTCTGCCTATCTGCTTCACAACAAGTCCAATTAAGTGGGTCTCTGAAAGAAGTTAGAAGATGGGTGCTGGCCTTGCTGGCCGAGGTTGGTAAGGCGCCCGAACTGTTTCCCAGTGATTTGTACCCCATTCAACTATTGTGTCTACAATTAATAACACGTGCATCTCGCGACACGACCAAATGGGCGCTCTACTGGTTCCCACCGTGCGGCGGTCAGAGTCTGGCGCTGAATGCAATCTCAGCGGGGTCTCAACACCGACTAATACGACAATTGCTGAGACGGAGTTCTTGCAGTGTGGCTGGCAGACCTGCCTTGCCGCTCTTACAACCTCAAAATAAGGACCTCGCAAAAGGTCCGCGGGGCGTGCCAGTTAGCTCGGGCGATTGCGAGTTTGCTGATCATCGCAGGCATATCGTCGGCGCGCCTTTCCTTTCTAGTAAGGCACCGCATACTTCATGTCCTGAACCTCCCACTGGGTCGGGCCGAGACTTCCAAGGAACGACGTGCAGACGGGCGACTGTACTTAGTTTCGTTGCATGCACACATGACAGGGACCGCATGGCCAGACCAATCTCCCGCAAGTGGCATTTTGAAGCGCTTTATCAAACTACGGGTTTCGGACCAGGACTTCCTGTTCATCAACATGCCTGCTCCGACCGTAGGATCGGGTTAGAGTACACTTTCCCTTGGGGGAAATCTTATCCTCAGAAGATAACGCGCGTTGTTATCCCTTTTGTTCGTTTTCGAGTCGATCTAAAGCCGGCCCCGTGGGCGACGAATGGATCTTTGTGGCGCCCATCCTACGTTCTAGCGTGGGTGGGTGTAACTACATTCCCCGCCAGGCATGCCTACGCTCTTGCAGAGTCGATTTGGTTCGTAATATCGCTGACCCGACCTCATACTCCGATATCACTAACGTTTGGTAGGAGCCACTACATAACCCTTGTGGATCCTATAGGCGGGTATACGCGGTTATGGTTGTACAAGGACCCAGCTTCACCGAAAGAGGTTGGGCTAATTTTCCACGACGACGCCCTTGAGACGAGGCTGATGTCTTGCACCGGACTTGCATCTGTTGGAGGATTGGTGACGTGGCATGTGGCATCGACATTTCAACCTCAACGGTTACCTAATACTAATGACCGCCCAACGGGGATAAGTAAAAGAAAATTTTTCGTTTTTCCGCCTCACTACCCTGGTTACCCGTGTGAGTCAGGCTGCGGCATACATCAACGGGAAGGATGTATTGTACTGTGTTCCACTGCGATCCCGAACTACCAATGTGGGTCAAAGAGGCATTCGGAGCAGCTCGGTGGAACTGACAATGGCGTAATCATGTTTGGGCACAGACCATTGTCCATTCAGAAGAGTTTGCTATCTCCCAAGTTAGGCTCTAGAAGTAACCACGGTATATATTATCACTCGAGAAACCAGTCCTTCGCAAGATGTGACAGAATGAGCGTCATCGAGGAAGGTTACTTCCTTACAGTTCCTTTCCTGCCACAGACGACGCGCTATTCTGAGCAGACCAGTAGCAGCAAGCGGTGTTCGAATTACGGTGCTTTCATTTTATTCCGGGGTCCTTTTACGAGGCTCAGTTCTAAAGTTTCCTTCAAAACTCACTCACGATTCGTTGCAGTCCTAGCATTTATTTGTCAGACCGGAATAACAATTCCTGCTCCTGGAACTTGCATGCAATTCGTCCCCCAAGAGGGGCGTGGAGTGTCACCTTCCGGTGGAGGGGCAACATTCCTGTCGACGCGTTGCTCTCCCTTGGCTACTGAAGGCTCAATATCGTCCGACGGTGGAAGCCCATCAGACTGTACACCACGAGCAGTAGATAAACTTTATGTTGTGATATCACAAGCTGGTACGCGCCTCGAGGGGTTATACAATAACTACGGCGAGGCTCTCAACTCCTGTATTAAACGATGTGTACCATATCGCCGAAATACGCACCGTTTTGGGTGCTTGTCCGTCCACAAAGTTCTCCGTCGAGCTTATGTGAACCGTTGCCAGTTGCAGGTTGTCGGTAAAGTCTTTAGGGTCCATGAGCCAACGACAGCGCGCATTCTTAAGCTTATCAGTCAGACTGAGTATTATAGCGTTGGGTTCCCAATCCCCTGGCATTGTGTCCTTCTCGCGCCTGAATTTGCGATTCTTCCCCCAGAGCTGCTTCGTCATGCCTTCTCTCCTTTCCCACCGGCCGACGACGGCGCCACTTACGTCTTGGAAGACCTCGCTAAACTTACTTCCTTTGCCGTGGTAAAGCCTTGGAACCAGCCTACGCCCTACTACAATGGAAGAGCGGTAGAACATCATATTGCGTTCTCTGTGCCTCAACTCGAATATATGCACACCCTTAGTAACACAGCGACGTCCTGGTGTATAACGAGTGGGGCATGGGTGCGTCGTCCCAAACGACCGACTCATAGCAGATCCGATCCCTTGACTTTGCCGCTTCGCGCAAAGCACACATTAGGAAGTCTGGTCGCGTGCTGCACAGCACACATATGCGCCTCTTGCCTTAACCGGATATCTGCGACGAGCTCGCAAACATGGAGACGTCAGGATGTGTCGATAGGTCGGGGAATACGTGAAGTGAGATGGGACTATTGGTCTTCTAAAGTGCGAGCTCTATCTGGGTTACGTGTAGTGTCATTTTGGTCGTCATGGATATCCCCGGTAGGAGGCGTATCGGGTCCTGTGTCATCTCCTCCAAGAACCCCGATGGGGAACGGGTACTTTGCACATGCATTAATACCTAACCATCCTATGATAGGCTCGTGGGATGTCTTCTGCAGGAGGAACACTTCGGTGCCGTTGGGGCGTCGATCAACATATGATGTTACACAGTACCCATATAACGCAACAGTTGCTAAGCATTGCGCCGCATTAACAGCCCTTGTTAAAGCTATATCCTCGTCTTCTTCGAGTACGCTAGAGACAAAGAGATCCGGGAATACTGAAGAGAATGGCAGCCAGAAAACAAAACGGGGTTCTGATTTGAAAATCATTTGTTTAGGAATTACGGCAGTACGCCTAGTCACGCTTCTCTTTCCCGTTGGACTCGGCCCACAATACAGTCCGGCAGTATTCATCTTTACTTTACCTAAGGCATGCCGAGTTGATGCGTTACAGACCGTCTTGATAACTGGACCTAGCACGGCCCTCCGGCAGGGACTGAACTCAATTCCGACGTATGTTACTTTCCAAAGGTACAGTAACAAACGAGCTGGCATCGTTACCAAATATGTCATTAATAGAGTGATAAACAAGGGTCTATTCCGCGGGCCCAATTTAAATACCCTGGAGCAGGTCAATTTCAATATACAGGATCCTGGAAAGGACGTCCTGTCTTACGCCGAAAGTCGAGGTCAAAGACGACGCATTCGAGGATTCCCGACGATATGGCATCTTGCACTGATCCGCCGTAGCCGGGTAGTACTTACGAAATTGGGTACTCGCCTAGAACTTGCTGCCCTTAAAGCGCAAAAGAAGGCGCGAAGATCGTCGGTGTTTAGTACAATGTTATATCTCCCTCCACCTTCACTCAGCCGGTCAACGTATGTACATGCACAGCGGGTGATGATGCCCCACGGAAAATCATGCCGGAGTAGATGTAATACTGGAGGGGCAGGCTCGGCGACCGCGTATCTTACACAATCCCCGAAGCTTGCAAGCGAGCGAACTATTGGATACACGGGGTTGGCTTTTATGGTTCCAGTACGTCGGTTATTTATGGACGGCTGGCTATGTGGGTACGGATCCTCAGTCATGTGTACCGAGAGGCGTCATTGCCCCAATCTATTTTTATTGGCGCGGAAGGTTCAGCGGAACTGTCGGGAGCGATTTGCTGGCTCTTGCATGATGACGCGCCGTCGACGTTGCCTTTTCTATCCCGACATGTATAGTAGGAAGTATCTAACGATTACCTCGCGAGACTGTATCCAGAAGCTTCTCACGGACCGCCGCATCTCACGATCATTTGTCGCACTGTGTGTCAAGCCGTCGGGCTGTGGAATTGCGGGGGTGCGTTTCTTGAACGTCTGCCTCGCGTTCTGCCGAACGGGAGTACCCCCTAGAGCCAATTGTGGGGATCCGGGATACCTGCGTTATACGCATGCTATCTGTCGTTACCAGAGGCCCAGATTAACTCTATACGTGTGCATTCCAGCCGTCTCAGTAAGGGCTCCCCCACAATGCGGCCTAGATCTGGTTTCAATAAAGAGCAAGATTTGGGAGCCCCGTCTTAGTTTAGGCCTCTACTCCATTAACTTGTTTTTTCCTAGACGGCTGTTGTTTTTGATGTGTGAATCAACTCCCCTACCAGGCCGTCCGCGTCCAATGTTAATACCGTCCAATTATGTGGGACGGAATCTACCTCGGAATACGTCTACACACCATCTCACAACCTTTGGCAGGTCACCATTCTGGCTCTGTCAAGTACTCAAGCCCTTTCATACCTTAGAAGACTATCGGCATCAGTCCGGAAATGTCGGCACCACATCTGATGCGTCATCCCGACAGGTTAAACTTGGCATCTATGCTAGTACACTCTCCGCTCCGTCTAGTGGCGCCGCGCGTGAGATGAAGTGTGAGCGTCGAATAACTTTTTCGCACTTGGGTATACTCTACGCCGACGGAGCTTGTACCGTCGCCACGCGCGCCTATACACTCGGCGCGCCCCCCCCTAACGTGCGTCTCGTATGTGCCATGACACTCCCGTTTGATGGGGCTTCATCGCTGGACCGAATCATTTTGGTCACTACGGTTCCTGATCGTAGTCGAAGAGTTTCATGCAAGAGACGCCTGTTCTGGCTCACCCCCACCCATATGCGATTTTGGGAACGGACGCACTACACTTATTTAGCATGGTCAGGCCTGCTTCCATGGTGCGAGTTAGGGTCCCTTAGGTATTACCGAGTGAGAGAGGGCCTAGATATGTTAAGATTTCGCAGCGAGATCCCTGTTAATAGTAGCCGTCGCCGAACCCAACGCAGCTTTATCCATGGAAGGTGGGTAGCCGCACAGCGACGATTACTGTCGTACCGGGACCTCTCACATTTCCTCGCTCTCCTCACGGTTTTCCACAAAGGGTTGTTACCGATAGATTCAGGGGCAGCACAAGACGTACGGACATGGCGACCCCTTCGTCTGGGGAGGACGCTTCCATTGAGTTGCGCGCGTATTCCAAGGACGCCTCGTATAAGTGAACGAAGATGCACGCGGGAGCTCGAACTACATTATGAACTACAGTACACTCCTCACTGGGGTTTGACTTTACGGGCCCTACGATCACCAGGGTTGCCGTGTCTCCTTAGAGTTTCAAGCGTACTCAATGAAATGACATGCGAGGCCCGGTCGTTCCTCCCCTTCCAGGTGGCCATGTTCTTCAATCTCGAGGGGCGTTCCCAGCTCTTGAGGGTTGCGTACCTCTGTACCCTGGCTACTAAGCCTGGCAATGGCAGTCCGGCCGTGTTAGATACTGACCCTTTTGTTATTACGTATCGGGACCCTCTAGTGCGCTGCAGCCGTCTTTCTTTGATGCCGACTATAATAGCCGGGTACTGCGAGGGGACACGCAGGTCCTTACAATTCTCAATAATCGAACACTTGTCCCTGACAACCGCTCAGGTCGGAATCGTAGACCGCCTTATTGTCGTTCCACACCATTATGTGACCGTAAGGTGGATAGCTGCTAAAGTCACCTTATTTAACATACAACTGAAAATAGGTCCTAAAACAATACGTGTGCGTTTTTACGTTGTTCCTATGTCTGAGCACTATAGCCGAGTAACACGAAATCCTGTCTTCGTCCTGCACAGATGGGTAACAACCGATCGTAGATCAAGTCACCCAAGTGGATCAGCAAGACCCTCTGTCGTAGGATTCGGTACATGGAGGCCGCGCGTAAAGTTCGCCATCCAAGCTTTCGACGGTGATACTCAACGTGTTGATTTGACTTTACCTGGCGCTACAGCTCCGTGTGGTACGTTTTACGGGATATTTTCTGCCGCGTACGTCCGCTTAACCGCGAAGATTCGATATCGCACTACTTCACTAACTACGCGATTTTCAATGAAGAGCGTTCATACGAGGTGTAGAATTGTAGAGGGGGAAAAACGGATGGTGGTCGCATCTAGTCGAGGTAGCGACCCCGCCCCTACATCTCTACAGATTGGTCTTCATGCCCTCGTCGTCTGTGTCTGCGGGAGGTACGAGGTCCTGACTACCACTGTGGCTGGGGCTGAAGGTAATTGGTCACAGGATTACCTCTTGGACTGGGCAACGCCAATCTGTACCACAATCAGTCCGACGACGTTGCGAGACTTAAGAGAGGTTCATACGCTACATGTGAACCGTAACGCTGGGGCCGTGCGGGCTAGCCGCTTACTATTCTCAACGCGTGGCTTCCGAATACGTACGGTACTTGAGGCAAGAACACTTGATGTACTACTGGGAGGCACGTTCAAATTGGGTAAATGCCGAAGCGGTCCGGCTCTGCGCTCTAGTGGGCGTTGTCGTAAGGGACTTAGAGAACGTATCGGGAGCGGTTCGGCTCGCCCGGGTCTCTCCGCTATCGCTCTTTTTCGAACACGTCACTTTGCCATACTAGGGTTCAGAGCTAGGGGATGTATTGCTTGTCCTCTAGCGGGGGGTCTGATTTGTTCTTGTGTAGCATTTGGTGTAGTGGAAAAATACCGGAATCCCACACGCAAATCGAAGGTGAGTATACGCCCCAGCTTCCTTTCCTGTTGTGGTTTGTACCGGCTCTCACATAACCAGAATCGTCTTACGCACGCAGAATCGGGCGTCGACACTACCGACTACCAAAGCGGGTTAAGCTGGCGGTTGTACCCGGGTGCTCGGTTCTTTAATCATAAAAGGTGTAACCGAATTGACACTGACTTCCGTGTTATTAGGTGCCCGGATTTCAGGTCAAAATTGCGACGTAGGAAAAGGGAAATACCACTCTTGCTTTCCCCCCACACCTCTGAATTAGTTTTTGTCTACATCAGGCCTGTACTCGGGTATCGTGTGTCGGTCAATCATTCTTTCAGACGACGACGCGCGAAAAAGGTAGATGAGATCCCGATTGCCTTCACTCTCATAACCGTTGAAGGGCCGGAGTTTACAGTACCGACTCCTTCACTGAGGGACGCTCGGGGTTGGAGTATCTTACGACTGGGTTACCGTGAAAAGTCTCGTTTCCCCAGTCTCACTCTGGGTACTTATGCTCGGGAGCCCCTGTGGCGGGGACTTGAATTTAATACAATCTCCCAGTTAAATGCTGTCCGAATAGGTTCAGGTGTCCACGCAACAAGTGCATCGACTATGACATCAGCCCGCATTAGTTACGTGATCCTGTTGGTCCTGAATGGTTACCAAGGTAGGTCCAGGGGCGGACGCGCAGGGTCAGCAATACCTCGAATCACCCGGGTTTCCTTCCACGCGAGTGAATTATTGTCATTCTTCGTATGTACACGAGCTGAGGCCGATGCTAGATCTGGACGTAGATCGAAACAAGGGAAACCCTGCTCCCCACCGCGAAAACTTCGATACTCTCCTCCGGTCAGTAGGCACAACACCAGACGTGCTCCCCCCAACAGTTATATCCGTAATTTCAGCGTGAGAACACTAAAGGTAGCATCCTATTCTAGCAAAATGTGTCCTGCGTGTCACCTAGGGGCTTGGGTTCGCTCAGTGGCCTCAACTAGGAGTTCGTATGCTATGAATTTGACTTTTGGGGATTTGAACCGATGTCCTAGTGCCCCAAAAGCGCAGCCTCTGTCCGGGGATTCGGTTAGGTGCCAT'
p13
ss.